	.file	"uart.c"
	.option nopic
	.attribute arch, "rv32i2p0"
	.attribute unaligned_access, 0
	.attribute stack_align, 16
	.text
.Ltext0:
	.cfi_sections	.debug_frame
	.file 0 "/home/ubuntu/Lab_UART_V2/testbench/uart" "../../firmware/uart.c"
	.align	2
	.type	flush_cpu_icache, @function
flush_cpu_icache:
.LFB21:
	.file 1 "../../firmware/system.h"
	.loc 1 15 1
	.cfi_startproc
	addi	sp,sp,-16
	.cfi_def_cfa_offset 16
	sw	s0,12(sp)
	.cfi_offset 8, -4
	addi	s0,sp,16
	.cfi_def_cfa 8, 0
	.loc 1 26 1
	nop
	lw	s0,12(sp)
	.cfi_restore 8
	.cfi_def_cfa 2, 16
	addi	sp,sp,16
	.cfi_def_cfa_offset 0
	jr	ra
	.cfi_endproc
.LFE21:
	.size	flush_cpu_icache, .-flush_cpu_icache
	.align	2
	.type	flush_cpu_dcache, @function
flush_cpu_dcache:
.LFB22:
	.loc 1 29 1
	.cfi_startproc
	addi	sp,sp,-16
	.cfi_def_cfa_offset 16
	sw	s0,12(sp)
	.cfi_offset 8, -4
	addi	s0,sp,16
	.cfi_def_cfa 8, 0
	.loc 1 33 1
	nop
	lw	s0,12(sp)
	.cfi_restore 8
	.cfi_def_cfa 2, 16
	addi	sp,sp,16
	.cfi_def_cfa_offset 0
	jr	ra
	.cfi_endproc
.LFE22:
	.size	flush_cpu_dcache, .-flush_cpu_dcache
	.align	2
	.type	csr_write_simple, @function
csr_write_simple:
.LFB23:
	.file 2 "../../firmware/hw/common.h"
	.loc 2 33 1
	.cfi_startproc
	addi	sp,sp,-32
	.cfi_def_cfa_offset 32
	sw	s0,28(sp)
	.cfi_offset 8, -4
	addi	s0,sp,32
	.cfi_def_cfa 8, 0
	sw	a0,-20(s0)
	sw	a1,-24(s0)
	.loc 2 34 5
	lw	a5,-24(s0)
	.loc 2 34 32
	lw	a4,-20(s0)
	sw	a4,0(a5)
	.loc 2 35 1
	nop
	lw	s0,28(sp)
	.cfi_restore 8
	.cfi_def_cfa 2, 32
	addi	sp,sp,32
	.cfi_def_cfa_offset 0
	jr	ra
	.cfi_endproc
.LFE23:
	.size	csr_write_simple, .-csr_write_simple
	.align	2
	.type	user_irq_0_ev_pending_write, @function
user_irq_0_ev_pending_write:
.LFB203:
	.file 3 "../../firmware/csr.h"
	.loc 3 778 60
	.cfi_startproc
	addi	sp,sp,-32
	.cfi_def_cfa_offset 32
	sw	ra,28(sp)
	sw	s0,24(sp)
	.cfi_offset 1, -4
	.cfi_offset 8, -8
	addi	s0,sp,32
	.cfi_def_cfa 8, 0
	sw	a0,-20(s0)
	.loc 3 779 2
	li	a5,-268406784
	addi	a1,a5,-2032
	lw	a0,-20(s0)
	call	csr_write_simple
	.loc 3 780 1
	nop
	lw	ra,28(sp)
	.cfi_restore 1
	lw	s0,24(sp)
	.cfi_restore 8
	.cfi_def_cfa 2, 32
	addi	sp,sp,32
	.cfi_def_cfa_offset 0
	jr	ra
	.cfi_endproc
.LFE203:
	.size	user_irq_0_ev_pending_write, .-user_irq_0_ev_pending_write
	.align	2
	.type	irq_getmask, @function
irq_getmask:
.LFB318:
	.file 4 "../../firmware/irq_vex.h"
	.loc 4 23 1
	.cfi_startproc
	addi	sp,sp,-32
	.cfi_def_cfa_offset 32
	sw	s0,28(sp)
	.cfi_offset 8, -4
	addi	s0,sp,32
	.cfi_def_cfa 8, 0
	.loc 4 25 2
 #APP
# 25 "../../firmware/irq_vex.h" 1
	csrr a5, 3008
# 0 "" 2
 #NO_APP
	sw	a5,-20(s0)
	.loc 4 26 9
	lw	a5,-20(s0)
	.loc 4 27 1
	mv	a0,a5
	lw	s0,28(sp)
	.cfi_restore 8
	.cfi_def_cfa 2, 32
	addi	sp,sp,32
	.cfi_def_cfa_offset 0
	jr	ra
	.cfi_endproc
.LFE318:
	.size	irq_getmask, .-irq_getmask
	.align	2
	.type	irq_pending, @function
irq_pending:
.LFB320:
	.loc 4 35 1
	.cfi_startproc
	addi	sp,sp,-32
	.cfi_def_cfa_offset 32
	sw	s0,28(sp)
	.cfi_offset 8, -4
	addi	s0,sp,32
	.cfi_def_cfa 8, 0
	.loc 4 37 2
 #APP
# 37 "../../firmware/irq_vex.h" 1
	csrr a5, 4032
# 0 "" 2
 #NO_APP
	sw	a5,-20(s0)
	.loc 4 38 9
	lw	a5,-20(s0)
	.loc 4 39 1
	mv	a0,a5
	lw	s0,28(sp)
	.cfi_restore 8
	.cfi_def_cfa 2, 32
	addi	sp,sp,32
	.cfi_def_cfa_offset 0
	jr	ra
	.cfi_endproc
.LFE320:
	.size	irq_pending, .-irq_pending
	.section	.mprj,"ax",@progbits
	.align	2
	.globl	uart_write
	.type	uart_write, @function
uart_write:
.LFB321:
	.file 5 "../../firmware/uart.c"
	.loc 5 7 1
	.cfi_startproc
	addi	sp,sp,-32
	.cfi_def_cfa_offset 32
	sw	s0,28(sp)
	.cfi_offset 8, -4
	addi	s0,sp,32
	.cfi_def_cfa 8, 0
	sw	a0,-20(s0)
	.loc 5 8 10
	nop
.L10:
	.loc 5 8 14 discriminator 1
	li	a5,805306368
	addi	a5,a5,8
	lw	a5,0(a5)
	.loc 5 8 11 discriminator 1
	andi	a5,a5,8
	bne	a5,zero,.L10
	.loc 5 9 6
	li	a5,805306368
	addi	a5,a5,4
	.loc 5 9 39
	lw	a4,-20(s0)
	sw	a4,0(a5)
	.loc 5 10 1
	nop
	lw	s0,28(sp)
	.cfi_restore 8
	.cfi_def_cfa 2, 32
	addi	sp,sp,32
	.cfi_def_cfa_offset 0
	jr	ra
	.cfi_endproc
.LFE321:
	.size	uart_write, .-uart_write
	.align	2
	.globl	uart_write_char
	.type	uart_write_char, @function
uart_write_char:
.LFB322:
	.loc 5 13 1
	.cfi_startproc
	addi	sp,sp,-32
	.cfi_def_cfa_offset 32
	sw	ra,28(sp)
	sw	s0,24(sp)
	.cfi_offset 1, -4
	.cfi_offset 8, -8
	addi	s0,sp,32
	.cfi_def_cfa 8, 0
	mv	a5,a0
	sb	a5,-17(s0)
	.loc 5 14 5
	lbu	a4,-17(s0)
	li	a5,10
	bne	a4,a5,.L14
	.loc 5 15 3
	li	a0,13
	call	uart_write_char
.L14:
	.loc 5 18 10
	nop
.L13:
	.loc 5 18 14 discriminator 1
	li	a5,805306368
	addi	a5,a5,8
	lw	a5,0(a5)
	.loc 5 18 11 discriminator 1
	andi	a5,a5,8
	bne	a5,zero,.L13
	.loc 5 19 6
	li	a5,805306368
	addi	a5,a5,4
	.loc 5 19 39
	lbu	a4,-17(s0)
	sw	a4,0(a5)
	.loc 5 20 1
	nop
	lw	ra,28(sp)
	.cfi_restore 1
	lw	s0,24(sp)
	.cfi_restore 8
	.cfi_def_cfa 2, 32
	addi	sp,sp,32
	.cfi_def_cfa_offset 0
	jr	ra
	.cfi_endproc
.LFE322:
	.size	uart_write_char, .-uart_write_char
	.align	2
	.globl	uart_write_string
	.type	uart_write_string, @function
uart_write_string:
.LFB323:
	.loc 5 23 1
	.cfi_startproc
	addi	sp,sp,-32
	.cfi_def_cfa_offset 32
	sw	ra,28(sp)
	sw	s0,24(sp)
	.cfi_offset 1, -4
	.cfi_offset 8, -8
	addi	s0,sp,32
	.cfi_def_cfa 8, 0
	sw	a0,-20(s0)
	.loc 5 24 11
	j	.L16
.L17:
	.loc 5 25 28
	lw	a5,-20(s0)
	addi	a4,a5,1
	sw	a4,-20(s0)
	.loc 5 25 9
	lbu	a5,0(a5)
	mv	a0,a5
	call	uart_write_char
.L16:
	.loc 5 24 12
	lw	a5,-20(s0)
	lbu	a5,0(a5)
	bne	a5,zero,.L17
	.loc 5 26 1
	nop
	nop
	lw	ra,28(sp)
	.cfi_restore 1
	lw	s0,24(sp)
	.cfi_restore 8
	.cfi_def_cfa 2, 32
	addi	sp,sp,32
	.cfi_def_cfa_offset 0
	jr	ra
	.cfi_endproc
.LFE323:
	.size	uart_write_string, .-uart_write_string
	.align	2
	.globl	uart_read_char
	.type	uart_read_char, @function
uart_read_char:
.LFB324:
	.loc 5 30 1
	.cfi_startproc
	addi	sp,sp,-16
	.cfi_def_cfa_offset 16
	sw	s0,12(sp)
	.cfi_offset 8, -4
	addi	s0,sp,16
	.cfi_def_cfa 8, 0
	.loc 5 32 1
	nop
	mv	a0,a5
	lw	s0,12(sp)
	.cfi_restore 8
	.cfi_def_cfa 2, 16
	addi	sp,sp,16
	.cfi_def_cfa_offset 0
	jr	ra
	.cfi_endproc
.LFE324:
	.size	uart_read_char, .-uart_read_char
	.align	2
	.globl	uart_read
	.type	uart_read, @function
uart_read:
.LFB325:
	.loc 5 35 1
	.cfi_startproc
	addi	sp,sp,-32
	.cfi_def_cfa_offset 32
	sw	s0,28(sp)
	.cfi_offset 8, -4
	addi	s0,sp,32
	.cfi_def_cfa 8, 0
	.loc 5 37 11
	li	a5,805306368
	addi	a5,a5,8
	lw	a5,0(a5)
	.loc 5 37 43
	srli	a5,a5,5
	.loc 5 37 7
	beq	a5,zero,.L20
	.loc 5 37 59 discriminator 1
	li	a5,805306368
	addi	a5,a5,8
	lw	a5,0(a5)
	.loc 5 37 91 discriminator 1
	srli	a5,a5,4
	.loc 5 37 53 discriminator 1
	beq	a5,zero,.L20
	.loc 5 38 16
	li	a5,805306368
	lw	a5,0(a5)
	.loc 5 38 13
	sw	a5,-20(s0)
.L20:
	.loc 5 40 12
	lw	a5,-20(s0)
	.loc 5 41 1
	mv	a0,a5
	lw	s0,28(sp)
	.cfi_restore 8
	.cfi_def_cfa 2, 32
	addi	sp,sp,32
	.cfi_def_cfa_offset 0
	jr	ra
	.cfi_endproc
.LFE325:
	.size	uart_read, .-uart_read
	.align	2
	.globl	uart_isr
	.type	uart_isr, @function
uart_isr:
.LFB326:
	.loc 5 44 1
	.cfi_startproc
	addi	sp,sp,-32
	.cfi_def_cfa_offset 32
	sw	ra,28(sp)
	sw	s0,24(sp)
	sw	s1,20(sp)
	.cfi_offset 1, -4
	.cfi_offset 8, -8
	.cfi_offset 9, -12
	addi	s0,sp,32
	.cfi_def_cfa 8, 0
	.loc 5 46 21
	call	irq_pending
	mv	s1,a0
	.loc 5 46 37
	call	irq_getmask
	mv	a5,a0
	.loc 5 46 14
	and	a5,s1,a5
	sw	a5,-24(s0)
	.loc 5 48 15
	lw	a5,-24(s0)
	andi	a5,a5,4
	.loc 5 48 8
	beq	a5,zero,.L23
	.loc 5 49 15
	call	uart_read
	sw	a0,-20(s0)
	.loc 5 50 9
	li	a0,1
	call	user_irq_0_ev_pending_write
.L23:
	.loc 5 53 12
	lw	a5,-20(s0)
	.loc 5 54 1
	mv	a0,a5
	lw	ra,28(sp)
	.cfi_restore 1
	lw	s0,24(sp)
	.cfi_restore 8
	.cfi_def_cfa 2, 32
	lw	s1,20(sp)
	.cfi_restore 9
	addi	sp,sp,32
	.cfi_def_cfa_offset 0
	jr	ra
	.cfi_endproc
.LFE326:
	.size	uart_isr, .-uart_isr
	.text
.Letext0:
	.file 6 "/opt/riscv/lib/gcc/riscv32-unknown-elf/12.1.0/include/stdint-gcc.h"