	.file	"uart.c"
	.option nopic
	.attribute arch, "rv32i2p0"
	.attribute unaligned_access, 0
	.attribute stack_align, 16
	.text
.Ltext0:
	.cfi_sections	.debug_frame
	.file 0 "/home/ubuntu/Lab_UART_V2/testbench/uart" "uart.c"
	.align	2
	.type	flush_cpu_icache, @function
flush_cpu_icache:
.LFB21:
	.file 1 "../../firmware/system.h"
	.loc 1 15 1
	.cfi_startproc
	addi	sp,sp,-16
	.cfi_def_cfa_offset 16
	sw	s0,12(sp)
	.cfi_offset 8, -4
	addi	s0,sp,16
	.cfi_def_cfa 8, 0
	.loc 1 26 1
	nop
	lw	s0,12(sp)
	.cfi_restore 8
	.cfi_def_cfa 2, 16
	addi	sp,sp,16
	.cfi_def_cfa_offset 0
	jr	ra
	.cfi_endproc
.LFE21:
	.size	flush_cpu_icache, .-flush_cpu_icache
	.align	2
	.type	flush_cpu_dcache, @function
flush_cpu_dcache:
.LFB22:
	.loc 1 29 1
	.cfi_startproc
	addi	sp,sp,-16
	.cfi_def_cfa_offset 16
	sw	s0,12(sp)
	.cfi_offset 8, -4
	addi	s0,sp,16
	.cfi_def_cfa 8, 0
	.loc 1 33 1
	nop
	lw	s0,12(sp)
	.cfi_restore 8
	.cfi_def_cfa 2, 16
	addi	sp,sp,16
	.cfi_def_cfa_offset 0
	jr	ra
	.cfi_endproc
.LFE22:
	.size	flush_cpu_dcache, .-flush_cpu_dcache
	.section	.mprj,"ax",@progbits
	.align	2
	.globl	uart_write
	.type	uart_write, @function
uart_write:
.LFB321:
	.file 2 "uart.c"
	.loc 2 7 1
	.cfi_startproc
	addi	sp,sp,-32
	.cfi_def_cfa_offset 32
	sw	s0,28(sp)
	.cfi_offset 8, -4
	addi	s0,sp,32
	.cfi_def_cfa 8, 0
	sw	a0,-20(s0)
	.loc 2 8 10
	nop
.L4:
	.loc 2 8 14 discriminator 1
	li	a5,805306368
	addi	a5,a5,8
	lw	a5,0(a5)
	.loc 2 8 11 discriminator 1
	andi	a5,a5,8
	bne	a5,zero,.L4
	.loc 2 9 6
	li	a5,805306368
	addi	a5,a5,4
	.loc 2 9 39
	lw	a4,-20(s0)
	sw	a4,0(a5)
	.loc 2 10 1
	nop
	lw	s0,28(sp)
	.cfi_restore 8
	.cfi_def_cfa 2, 32
	addi	sp,sp,32
	.cfi_def_cfa_offset 0
	jr	ra
	.cfi_endproc
.LFE321:
	.size	uart_write, .-uart_write
	.align	2
	.globl	uart_write_char
	.type	uart_write_char, @function
uart_write_char:
.LFB322:
	.loc 2 13 1
	.cfi_startproc
	addi	sp,sp,-32
	.cfi_def_cfa_offset 32
	sw	ra,28(sp)
	sw	s0,24(sp)
	.cfi_offset 1, -4
	.cfi_offset 8, -8
	addi	s0,sp,32
	.cfi_def_cfa 8, 0
	mv	a5,a0
	sb	a5,-17(s0)
	.loc 2 14 5
	lbu	a4,-17(s0)
	li	a5,10
	bne	a4,a5,.L8
	.loc 2 15 3
	li	a0,13
	call	uart_write_char
.L8:
	.loc 2 18 10
	nop
.L7:
	.loc 2 18 14 discriminator 1
	li	a5,805306368
	addi	a5,a5,8
	lw	a5,0(a5)
	.loc 2 18 11 discriminator 1
	andi	a5,a5,8
	bne	a5,zero,.L7
	.loc 2 19 6
	li	a5,805306368
	addi	a5,a5,4
	.loc 2 19 39
	lbu	a4,-17(s0)
	sw	a4,0(a5)
	.loc 2 20 1
	nop
	lw	ra,28(sp)
	.cfi_restore 1
	lw	s0,24(sp)
	.cfi_restore 8
	.cfi_def_cfa 2, 32
	addi	sp,sp,32
	.cfi_def_cfa_offset 0
	jr	ra
	.cfi_endproc
.LFE322:
	.size	uart_write_char, .-uart_write_char
	.align	2
	.globl	uart_write_string
	.type	uart_write_string, @function
uart_write_string:
.LFB323:
	.loc 2 23 1
	.cfi_startproc
	addi	sp,sp,-32
	.cfi_def_cfa_offset 32
	sw	ra,28(sp)
	sw	s0,24(sp)
	.cfi_offset 1, -4
	.cfi_offset 8, -8
	addi	s0,sp,32
	.cfi_def_cfa 8, 0
	sw	a0,-20(s0)
	.loc 2 24 11
	j	.L10
.L11:
	.loc 2 25 28
	lw	a5,-20(s0)
	addi	a4,a5,1
	sw	a4,-20(s0)
	.loc 2 25 9
	lbu	a5,0(a5)
	mv	a0,a5
	call	uart_write_char
.L10:
	.loc 2 24 12
	lw	a5,-20(s0)
	lbu	a5,0(a5)
	bne	a5,zero,.L11
	.loc 2 26 1
	nop
	nop
	lw	ra,28(sp)
	.cfi_restore 1
	lw	s0,24(sp)
	.cfi_restore 8
	.cfi_def_cfa 2, 32
	addi	sp,sp,32
	.cfi_def_cfa_offset 0
	jr	ra
	.cfi_endproc
.LFE323:
	.size	uart_write_string, .-uart_write_string
	.align	2
	.globl	uart_read_char
	.type	uart_read_char, @function
uart_read_char:
.LFB324:
	.loc 2 30 1
	.cfi_startproc
	addi	sp,sp,-16
	.cfi_def_cfa_offset 16
	sw	s0,12(sp)
	.cfi_offset 8, -4
	addi	s0,sp,16
	.cfi_def_cfa 8, 0
	.loc 2 32 1
	nop
	mv	a0,a5
	lw	s0,12(sp)
	.cfi_restore 8
	.cfi_def_cfa 2, 16
	addi	sp,sp,16
	.cfi_def_cfa_offset 0
	jr	ra
	.cfi_endproc
.LFE324:
	.size	uart_read_char, .-uart_read_char
	.align	2
	.globl	uart_read
	.type	uart_read, @function
uart_read:
.LFB325:
	.loc 2 35 1
	.cfi_startproc
	addi	sp,sp,-32
	.cfi_def_cfa_offset 32
	sw	s0,28(sp)
	.cfi_offset 8, -4
	addi	s0,sp,32
	.cfi_def_cfa 8, 0
	.loc 2 37 12
	li	a5,805306368
	addi	a5,a5,8
	lw	a5,0(a5)
	.loc 2 37 44
	srli	a5,a5,5
	.loc 2 37 7
	bne	a5,zero,.L14
	.loc 2 37 67 discriminator 1
	li	a5,805306368
	addi	a5,a5,8
	lw	a5,0(a5)
	.loc 2 37 99 discriminator 1
	srli	a5,a5,4
	.loc 2 37 60 discriminator 1
	bne	a5,zero,.L14
.LBB2:
	.loc 2 38 17
	sw	zero,-24(s0)
	.loc 2 38 9
	j	.L15
.L16:
	.loc 2 39 13 discriminator 3
 #APP
# 39 "uart.c" 1
	nop
# 0 "" 2
	.loc 2 38 32 discriminator 3
 #NO_APP
	lw	a5,-24(s0)
	addi	a5,a5,1
	sw	a5,-24(s0)
.L15:
	.loc 2 38 26 discriminator 1
	lw	a5,-24(s0)
	ble	a5,zero,.L16
.LBE2:
	.loc 2 41 16
	li	a5,805306368
	lw	a5,0(a5)
	.loc 2 41 13
	sw	a5,-20(s0)
.L14:
	.loc 2 44 12
	lw	a5,-20(s0)
	.loc 2 45 1
	mv	a0,a5
	lw	s0,28(sp)
	.cfi_restore 8
	.cfi_def_cfa 2, 32
	addi	sp,sp,32
	.cfi_def_cfa_offset 0
	jr	ra
	.cfi_endproc
.LFE325:
	.size	uart_read, .-uart_read
	.text
.Letext0:
	.file 3 "/opt/riscv/lib/gcc/riscv32-unknown-elf/12.1.0/include/stdint-gcc.h"