	.file	"mm_cpu.c"
	.option nopic
	.attribute arch, "rv32i2p0"
	.attribute unaligned_access, 0
	.attribute stack_align, 16
	.text
.Ltext0:
	.cfi_sections	.debug_frame
	.file 0 "/home/ubuntu/lab_6_wlos/testbench/uart" "mm_cpu.c"
	.globl	A
	.data
	.align	2
	.type	A, @object
	.size	A, 64
A:
	.word	0
	.word	1
	.word	2
	.word	3
	.word	0
	.word	1
	.word	2
	.word	3
	.word	0
	.word	1
	.word	2
	.word	3
	.word	0
	.word	1
	.word	2
	.word	3
	.globl	B
	.align	2
	.type	B, @object
	.size	B, 64
B:
	.word	1
	.word	2
	.word	3
	.word	4
	.word	5
	.word	6
	.word	7
	.word	8
	.word	9
	.word	10
	.word	11
	.word	12
	.word	13
	.word	14
	.word	15
	.word	16
	.globl	result
	.bss
	.align	2
	.type	result, @object
	.size	result, 64
result:
	.zero	64
	.globl	__mulsi3
	.section	.mprjram,"ax",@progbits
	.align	2
	.globl	matmul
	.type	matmul, @function
matmul:
.LFB0:
	.file 1 "mm_cpu.c"
	.loc 1 4 1
	.cfi_startproc
	addi	sp,sp,-48
	.cfi_def_cfa_offset 48
	sw	ra,44(sp)
	sw	s0,40(sp)
	.cfi_offset 1, -4
	.cfi_offset 8, -8
	addi	s0,sp,48
	.cfi_def_cfa 8, 0
	.loc 1 5 6
	sw	zero,-20(s0)
	.loc 1 10 15
	sw	zero,-36(s0)
	.loc 1 11 8
	sw	zero,-20(s0)
	.loc 1 11 2
	j	.L2
.L7:
	.loc 1 12 9
	sw	zero,-24(s0)
	.loc 1 12 3
	j	.L3
.L6:
	.loc 1 13 8
	sw	zero,-32(s0)
	.loc 1 14 10
	sw	zero,-28(s0)
	.loc 1 14 4
	j	.L4
.L5:
	.loc 1 15 16 discriminator 3
	lw	a5,-20(s0)
	slli	a4,a5,2
	.loc 1 15 20 discriminator 3
	lw	a5,-28(s0)
	add	a5,a4,a5
	.loc 1 15 13 discriminator 3
	lui	a4,%hi(A)
	addi	a4,a4,%lo(A)
	slli	a5,a5,2
	add	a5,a4,a5
	lw	a3,0(a5)
	.loc 1 15 31 discriminator 3
	lw	a5,-28(s0)
	slli	a4,a5,2
	.loc 1 15 35 discriminator 3
	lw	a5,-24(s0)
	add	a5,a4,a5
	.loc 1 15 28 discriminator 3
	lui	a4,%hi(B)
	addi	a4,a4,%lo(B)
	slli	a5,a5,2
	add	a5,a4,a5
	lw	a5,0(a5)
	.loc 1 15 25 discriminator 3
	mv	a1,a5
	mv	a0,a3
	call	__mulsi3
	mv	a5,a0
	mv	a4,a5
	.loc 1 15 9 discriminator 3
	lw	a5,-32(s0)
	add	a5,a5,a4
	sw	a5,-32(s0)
	.loc 1 14 19 discriminator 3
	lw	a5,-28(s0)
	addi	a5,a5,1
	sw	a5,-28(s0)
.L4:
	.loc 1 14 15 discriminator 1
	lw	a4,-28(s0)
	li	a5,3
	ble	a4,a5,.L5
	.loc 1 16 13 discriminator 2
	lw	a5,-20(s0)
	slli	a4,a5,2
	.loc 1 16 17 discriminator 2
	lw	a5,-24(s0)
	add	a5,a4,a5
	.loc 1 16 22 discriminator 2
	lui	a4,%hi(result)
	addi	a4,a4,%lo(result)
	slli	a5,a5,2
	add	a5,a4,a5
	lw	a4,-32(s0)
	sw	a4,0(a5)
	.loc 1 12 19 discriminator 2
	lw	a5,-24(s0)
	addi	a5,a5,1
	sw	a5,-24(s0)
.L3:
	.loc 1 12 14 discriminator 1
	lw	a4,-24(s0)
	li	a5,3
	ble	a4,a5,.L6
	.loc 1 11 18 discriminator 2
	lw	a5,-20(s0)
	addi	a5,a5,1
	sw	a5,-20(s0)
.L2:
	.loc 1 11 13 discriminator 1
	lw	a4,-20(s0)
	li	a5,3
	ble	a4,a5,.L7
	.loc 1 19 9
	lui	a5,%hi(result)
	addi	a5,a5,%lo(result)
	.loc 1 20 1
	mv	a0,a5
	lw	ra,44(sp)
	.cfi_restore 1
	lw	s0,40(sp)
	.cfi_restore 8
	.cfi_def_cfa 2, 48
	addi	sp,sp,48
	.cfi_def_cfa_offset 0
	jr	ra
	.cfi_endproc
.LFE0:
	.size	matmul, .-matmul
	.text
.Letext0:
	.file 2 "mm.h"