
10000000 <_ftext>:
10000000:	0b00006f          	j	100000b0 <crt_init>
10000004:	00000013          	nop
10000008:	00000013          	nop
1000000c:	00000013          	nop
10000010:	00000013          	nop
10000014:	00000013          	nop
10000018:	00000013          	nop
1000001c:	00000013          	nop

10000020 <trap_entry>:
10000020:	fe112e23          	sw	ra,-4(sp)
10000024:	fe512c23          	sw	t0,-8(sp)
10000028:	fe612a23          	sw	t1,-12(sp)
1000002c:	fe712823          	sw	t2,-16(sp)
10000030:	fea12623          	sw	a0,-20(sp)
10000034:	feb12423          	sw	a1,-24(sp)
10000038:	fec12223          	sw	a2,-28(sp)
1000003c:	fed12023          	sw	a3,-32(sp)
10000040:	fce12e23          	sw	a4,-36(sp)
10000044:	fcf12c23          	sw	a5,-40(sp)
10000048:	fd012a23          	sw	a6,-44(sp)
1000004c:	fd112823          	sw	a7,-48(sp)
10000050:	fdc12623          	sw	t3,-52(sp)
10000054:	fdd12423          	sw	t4,-56(sp)
10000058:	fde12223          	sw	t5,-60(sp)
1000005c:	fdf12023          	sw	t6,-64(sp)
10000060:	fc010113          	addi	sp,sp,-64
10000064:	144000ef          	jal	ra,100001a8 <isr>
10000068:	03c12083          	lw	ra,60(sp)
1000006c:	03812283          	lw	t0,56(sp)
10000070:	03412303          	lw	t1,52(sp)
10000074:	03012383          	lw	t2,48(sp)
10000078:	02c12503          	lw	a0,44(sp)
1000007c:	02812583          	lw	a1,40(sp)
10000080:	02412603          	lw	a2,36(sp)
10000084:	02012683          	lw	a3,32(sp)
10000088:	01c12703          	lw	a4,28(sp)
1000008c:	01812783          	lw	a5,24(sp)
10000090:	01412803          	lw	a6,20(sp)
10000094:	01012883          	lw	a7,16(sp)
10000098:	00c12e03          	lw	t3,12(sp)
1000009c:	00812e83          	lw	t4,8(sp)
100000a0:	00412f03          	lw	t5,4(sp)
100000a4:	00012f83          	lw	t6,0(sp)
100000a8:	04010113          	addi	sp,sp,64
100000ac:	30200073          	mret

100000b0 <crt_init>:
100000b0:	60000113          	li	sp,1536
100000b4:	00000517          	auipc	a0,0x0
100000b8:	f6c50513          	addi	a0,a0,-148 # 10000020 <trap_entry>
100000bc:	30551073          	csrw	mtvec,a0

100000c0 <sram_init>:
100000c0:	28000517          	auipc	a0,0x28000
100000c4:	f4050513          	addi	a0,a0,-192 # 38000000 <initfir>
100000c8:	28000597          	auipc	a1,0x28000
100000cc:	22458593          	addi	a1,a1,548 # 380002ec <_esram>
100000d0:	00000617          	auipc	a2,0x0
100000d4:	25060613          	addi	a2,a2,592 # 10000320 <_esram_rom>

100000d8 <sram_loop>:
100000d8:	00b50c63          	beq	a0,a1,100000f0 <data_init>
100000dc:	00062683          	lw	a3,0(a2)
100000e0:	00d52023          	sw	a3,0(a0)
100000e4:	00450513          	addi	a0,a0,4
100000e8:	00460613          	addi	a2,a2,4
100000ec:	fedff06f          	j	100000d8 <sram_loop>

100000f0 <data_init>:
100000f0:	00000513          	li	a0,0
100000f4:	03000593          	li	a1,48
100000f8:	00000617          	auipc	a2,0x0
100000fc:	1f860613          	addi	a2,a2,504 # 100002f0 <_erodata>

10000100 <data_loop>:
10000100:	00b50c63          	beq	a0,a1,10000118 <bss_init>
10000104:	00062683          	lw	a3,0(a2)
10000108:	00d52023          	sw	a3,0(a0)
1000010c:	00450513          	addi	a0,a0,4
10000110:	00460613          	addi	a2,a2,4
10000114:	fedff06f          	j	10000100 <data_loop>

10000118 <bss_init>:
10000118:	03000513          	li	a0,48
1000011c:	13800593          	li	a1,312

10000120 <bss_loop>:
10000120:	00b50863          	beq	a0,a1,10000130 <bss_done>
10000124:	00052023          	sw	zero,0(a0)
10000128:	00450513          	addi	a0,a0,4
1000012c:	ff5ff06f          	j	10000120 <bss_loop>

10000130 <bss_done>:
10000130:	00001537          	lui	a0,0x1
10000134:	88050513          	addi	a0,a0,-1920 # 880 <_fstack+0x280>
10000138:	30451073          	csrw	mie,a0
1000013c:	28000097          	auipc	ra,0x28000
10000140:	ffc080e7          	jalr	-4(ra) # 38000138 <main>

10000144 <infinit_loop>:
10000144:	0000006f          	j	10000144 <infinit_loop>

10000148 <flush_cpu_icache>:
10000148:	ff010113          	addi	sp,sp,-16
1000014c:	00812623          	sw	s0,12(sp)
10000150:	01010413          	addi	s0,sp,16
10000154:	00000013          	nop
10000158:	00c12403          	lw	s0,12(sp)
1000015c:	01010113          	addi	sp,sp,16
10000160:	00008067          	ret

10000164 <flush_cpu_dcache>:
10000164:	ff010113          	addi	sp,sp,-16
10000168:	00812623          	sw	s0,12(sp)
1000016c:	01010413          	addi	s0,sp,16
10000170:	00000013          	nop
10000174:	00c12403          	lw	s0,12(sp)
10000178:	01010113          	addi	sp,sp,16
1000017c:	00008067          	ret

10000180 <irq_setmask>:
10000180:	fe010113          	addi	sp,sp,-32
10000184:	00812e23          	sw	s0,28(sp)
10000188:	02010413          	addi	s0,sp,32
1000018c:	fea42623          	sw	a0,-20(s0)
10000190:	fec42783          	lw	a5,-20(s0)
10000194:	bc079073          	csrw	0xbc0,a5
10000198:	00000013          	nop
1000019c:	01c12403          	lw	s0,28(sp)
100001a0:	02010113          	addi	sp,sp,32
100001a4:	00008067          	ret

100001a8 <isr>:
100001a8:	ff010113          	addi	sp,sp,-16
100001ac:	00112623          	sw	ra,12(sp)
100001b0:	00812423          	sw	s0,8(sp)
100001b4:	01010413          	addi	s0,sp,16
100001b8:	00000513          	li	a0,0
100001bc:	fc5ff0ef          	jal	ra,10000180 <irq_setmask>
100001c0:	f00037b7          	lui	a5,0xf0003
100001c4:	03878793          	addi	a5,a5,56 # f0003038 <_esram+0xb8002d4c>
100001c8:	00a00713          	li	a4,10
100001cc:	00e7a023          	sw	a4,0(a5)
100001d0:	f00037b7          	lui	a5,0xf0003
100001d4:	03c78793          	addi	a5,a5,60 # f000303c <_esram+0xb8002d50>
100001d8:	00020737          	lui	a4,0x20
100001dc:	00e7a023          	sw	a4,0(a5)
100001e0:	00100713          	li	a4,1
100001e4:	02e01823          	sh	a4,48(zero) # 30 <flag>
100001e8:	00000013          	nop
100001ec:	00c12083          	lw	ra,12(sp)
100001f0:	00812403          	lw	s0,8(sp)
100001f4:	01010113          	addi	sp,sp,16
100001f8:	00008067          	ret

100001fc <flush_cpu_icache>:
100001fc:	ff010113          	addi	sp,sp,-16
10000200:	00812623          	sw	s0,12(sp)
10000204:	01010413          	addi	s0,sp,16
10000208:	00000013          	nop
1000020c:	00c12403          	lw	s0,12(sp)
10000210:	01010113          	addi	sp,sp,16
10000214:	00008067          	ret

10000218 <flush_cpu_dcache>:
10000218:	ff010113          	addi	sp,sp,-16
1000021c:	00812623          	sw	s0,12(sp)
10000220:	01010413          	addi	s0,sp,16
10000224:	00000013          	nop
10000228:	00c12403          	lw	s0,12(sp)
1000022c:	01010113          	addi	sp,sp,16
10000230:	00008067          	ret

10000234 <putchar>:
10000234:	fe010113          	addi	sp,sp,-32
10000238:	00112e23          	sw	ra,28(sp)
1000023c:	00812c23          	sw	s0,24(sp)
10000240:	02010413          	addi	s0,sp,32
10000244:	00050793          	mv	a5,a0
10000248:	fef407a3          	sb	a5,-17(s0)
1000024c:	fef44703          	lbu	a4,-17(s0)
10000250:	00a00793          	li	a5,10
10000254:	00f71663          	bne	a4,a5,10000260 <putchar+0x2c>
10000258:	00d00513          	li	a0,13
1000025c:	fd9ff0ef          	jal	ra,10000234 <putchar>
10000260:	00000013          	nop
10000264:	f00067b7          	lui	a5,0xf0006
10000268:	80478793          	addi	a5,a5,-2044 # f0005804 <_esram+0xb8005518>
1000026c:	0007a703          	lw	a4,0(a5)
10000270:	00100793          	li	a5,1
10000274:	fef708e3          	beq	a4,a5,10000264 <putchar+0x30>
10000278:	f00067b7          	lui	a5,0xf0006
1000027c:	80078793          	addi	a5,a5,-2048 # f0005800 <_esram+0xb8005514>
10000280:	fef44703          	lbu	a4,-17(s0)
10000284:	00e7a023          	sw	a4,0(a5)
10000288:	00000013          	nop
1000028c:	01c12083          	lw	ra,28(sp)
10000290:	01812403          	lw	s0,24(sp)
10000294:	02010113          	addi	sp,sp,32
10000298:	00008067          	ret

1000029c <print>:
1000029c:	fe010113          	addi	sp,sp,-32
100002a0:	00112e23          	sw	ra,28(sp)
100002a4:	00812c23          	sw	s0,24(sp)
100002a8:	02010413          	addi	s0,sp,32
100002ac:	fea42623          	sw	a0,-20(s0)
100002b0:	01c0006f          	j	100002cc <print+0x30>
100002b4:	fec42783          	lw	a5,-20(s0)
100002b8:	00178713          	addi	a4,a5,1
100002bc:	fee42623          	sw	a4,-20(s0)
100002c0:	0007c783          	lbu	a5,0(a5)
100002c4:	00078513          	mv	a0,a5
100002c8:	f6dff0ef          	jal	ra,10000234 <putchar>
100002cc:	fec42783          	lw	a5,-20(s0)
100002d0:	0007c783          	lbu	a5,0(a5)
100002d4:	fe0790e3          	bnez	a5,100002b4 <print+0x18>
100002d8:	00000013          	nop
100002dc:	00000013          	nop
100002e0:	01c12083          	lw	ra,28(sp)
100002e4:	01812403          	lw	s0,24(sp)
100002e8:	02010113          	addi	sp,sp,32
100002ec:	00008067          	ret


00000000 <taps>:
   0:	0000                	.2byte	0x0
   2:	0000                	.2byte	0x0
   4:	fff6                	.2byte	0xfff6
   6:	ffff                	.2byte	0xffff
   8:	fffffff7          	.4byte	0xfffffff7
   c:	00000017          	auipc	zero,0x0
  10:	0038                	.2byte	0x38
  12:	0000                	.2byte	0x0
  14:	0000003f 00000038 	.8byte	0x380000003f
  1c:	00000017          	auipc	zero,0x0
  20:	fffffff7          	.4byte	0xfffffff7
  24:	fff6                	.2byte	0xfff6
  26:	ffff                	.2byte	0xffff
	...


00000030 <flag>:
  30:	0000                	.2byte	0x0
	...

00000034 <outputsignal>:
	...


38000000 <initfir>:
38000000:	fe010113          	addi	sp,sp,-32
38000004:	00812e23          	sw	s0,28(sp)
38000008:	02010413          	addi	s0,sp,32
3800000c:	300007b7          	lui	a5,0x30000
38000010:	01078793          	addi	a5,a5,16 # 30000010 <_esram_rom+0x1ffffcf0>
38000014:	04000713          	li	a4,64
38000018:	00e7a023          	sw	a4,0(a5)
3800001c:	fe042623          	sw	zero,-20(s0)
38000020:	0400006f          	j	38000060 <initfir+0x60>
38000024:	00000713          	li	a4,0
38000028:	fec42783          	lw	a5,-20(s0)
3800002c:	00279793          	slli	a5,a5,0x2
38000030:	00f707b3          	add	a5,a4,a5
38000034:	0007a683          	lw	a3,0(a5)
38000038:	fec42703          	lw	a4,-20(s0)
3800003c:	0c0007b7          	lui	a5,0xc000
38000040:	01078793          	addi	a5,a5,16 # c000010 <_fstack+0xbfffa10>
38000044:	00f707b3          	add	a5,a4,a5
38000048:	00279793          	slli	a5,a5,0x2
3800004c:	00068713          	mv	a4,a3
38000050:	00e7a023          	sw	a4,0(a5)
38000054:	fec42783          	lw	a5,-20(s0)
38000058:	00178793          	addi	a5,a5,1
3800005c:	fef42623          	sw	a5,-20(s0)
38000060:	fec42703          	lw	a4,-20(s0)
38000064:	00a00793          	li	a5,10
38000068:	fae7fee3          	bgeu	a5,a4,38000024 <initfir+0x24>
3800006c:	00000013          	nop
38000070:	00000013          	nop
38000074:	01c12403          	lw	s0,28(sp)
38000078:	02010113          	addi	sp,sp,32
3800007c:	00008067          	ret

38000080 <fir_excute>:
38000080:	ff010113          	addi	sp,sp,-16
38000084:	00812623          	sw	s0,12(sp)
38000088:	00912423          	sw	s1,8(sp)
3800008c:	01010413          	addi	s0,sp,16
38000090:	260007b7          	lui	a5,0x26000
38000094:	00c78793          	addi	a5,a5,12 # 2600000c <_esram_rom+0x15fffcec>
38000098:	00a50737          	lui	a4,0xa50
3800009c:	00e7a023          	sw	a4,0(a5)
380000a0:	300007b7          	lui	a5,0x30000
380000a4:	00100713          	li	a4,1
380000a8:	00e7a023          	sw	a4,0(a5) # 30000000 <_esram_rom+0x1ffffce0>
380000ac:	00000493          	li	s1,0
380000b0:	0400006f          	j	380000f0 <fir_excute+0x70>
380000b4:	300007b7          	lui	a5,0x30000
380000b8:	08078793          	addi	a5,a5,128 # 30000080 <_esram_rom+0x1ffffd60>
380000bc:	00048713          	mv	a4,s1
380000c0:	00e7a023          	sw	a4,0(a5)
380000c4:	300007b7          	lui	a5,0x30000
380000c8:	08478793          	addi	a5,a5,132 # 30000084 <_esram_rom+0x1ffffd64>
380000cc:	0007a783          	lw	a5,0(a5)
380000d0:	00048613          	mv	a2,s1
380000d4:	00078693          	mv	a3,a5
380000d8:	03400713          	li	a4,52
380000dc:	00261793          	slli	a5,a2,0x2
380000e0:	00f707b3          	add	a5,a4,a5
380000e4:	00d7a023          	sw	a3,0(a5)
380000e8:	00148793          	addi	a5,s1,1
380000ec:	0ff7f493          	zext.b	s1,a5
380000f0:	03f00793          	li	a5,63
380000f4:	fc97f0e3          	bgeu	a5,s1,380000b4 <fir_excute+0x34>
380000f8:	300007b7          	lui	a5,0x30000
380000fc:	0007a783          	lw	a5,0(a5) # 30000000 <_esram_rom+0x1ffffce0>
38000100:	03400793          	li	a5,52
38000104:	0fc7a783          	lw	a5,252(a5)
38000108:	01879713          	slli	a4,a5,0x18
3800010c:	005a07b7          	lui	a5,0x5a0
38000110:	00f76733          	or	a4,a4,a5
38000114:	260007b7          	lui	a5,0x26000
38000118:	00c78793          	addi	a5,a5,12 # 2600000c <_esram_rom+0x15fffcec>
3800011c:	00e7a023          	sw	a4,0(a5)
38000120:	03400793          	li	a5,52
38000124:	00078513          	mv	a0,a5
38000128:	00c12403          	lw	s0,12(sp)
3800012c:	00812483          	lw	s1,8(sp)
38000130:	01010113          	addi	sp,sp,16
38000134:	00008067          	ret

38000138 <main>:
38000138:	fe010113          	addi	sp,sp,-32
3800013c:	00112e23          	sw	ra,28(sp)
38000140:	00812c23          	sw	s0,24(sp)
38000144:	02010413          	addi	s0,sp,32
38000148:	260007b7          	lui	a5,0x26000
3800014c:	0a078793          	addi	a5,a5,160 # 260000a0 <_esram_rom+0x15fffd80>
38000150:	00002737          	lui	a4,0x2
38000154:	80970713          	addi	a4,a4,-2039 # 1809 <_fstack+0x1209>
38000158:	00e7a023          	sw	a4,0(a5)
3800015c:	260007b7          	lui	a5,0x26000
38000160:	09c78793          	addi	a5,a5,156 # 2600009c <_esram_rom+0x15fffd7c>
38000164:	00002737          	lui	a4,0x2
38000168:	80970713          	addi	a4,a4,-2039 # 1809 <_fstack+0x1209>
3800016c:	00e7a023          	sw	a4,0(a5)
38000170:	260007b7          	lui	a5,0x26000
38000174:	09878793          	addi	a5,a5,152 # 26000098 <_esram_rom+0x15fffd78>
38000178:	00002737          	lui	a4,0x2
3800017c:	80970713          	addi	a4,a4,-2039 # 1809 <_fstack+0x1209>
38000180:	00e7a023          	sw	a4,0(a5)
38000184:	260007b7          	lui	a5,0x26000
38000188:	09478793          	addi	a5,a5,148 # 26000094 <_esram_rom+0x15fffd74>
3800018c:	00002737          	lui	a4,0x2
38000190:	80970713          	addi	a4,a4,-2039 # 1809 <_fstack+0x1209>
38000194:	00e7a023          	sw	a4,0(a5)
38000198:	260007b7          	lui	a5,0x26000
3800019c:	09078793          	addi	a5,a5,144 # 26000090 <_esram_rom+0x15fffd70>
380001a0:	00002737          	lui	a4,0x2
380001a4:	80970713          	addi	a4,a4,-2039 # 1809 <_fstack+0x1209>
380001a8:	00e7a023          	sw	a4,0(a5)
380001ac:	260007b7          	lui	a5,0x26000
380001b0:	08c78793          	addi	a5,a5,140 # 2600008c <_esram_rom+0x15fffd6c>
380001b4:	00002737          	lui	a4,0x2
380001b8:	80970713          	addi	a4,a4,-2039 # 1809 <_fstack+0x1209>
380001bc:	00e7a023          	sw	a4,0(a5)
380001c0:	260007b7          	lui	a5,0x26000
380001c4:	08878793          	addi	a5,a5,136 # 26000088 <_esram_rom+0x15fffd68>
380001c8:	00002737          	lui	a4,0x2
380001cc:	80970713          	addi	a4,a4,-2039 # 1809 <_fstack+0x1209>
380001d0:	00e7a023          	sw	a4,0(a5)
380001d4:	260007b7          	lui	a5,0x26000
380001d8:	08478793          	addi	a5,a5,132 # 26000084 <_esram_rom+0x15fffd64>
380001dc:	00002737          	lui	a4,0x2
380001e0:	80970713          	addi	a4,a4,-2039 # 1809 <_fstack+0x1209>
380001e4:	00e7a023          	sw	a4,0(a5)
380001e8:	260007b7          	lui	a5,0x26000
380001ec:	08078793          	addi	a5,a5,128 # 26000080 <_esram_rom+0x15fffd60>
380001f0:	00002737          	lui	a4,0x2
380001f4:	80970713          	addi	a4,a4,-2039 # 1809 <_fstack+0x1209>
380001f8:	00e7a023          	sw	a4,0(a5)
380001fc:	260007b7          	lui	a5,0x26000
38000200:	07c78793          	addi	a5,a5,124 # 2600007c <_esram_rom+0x15fffd5c>
38000204:	00002737          	lui	a4,0x2
38000208:	80970713          	addi	a4,a4,-2039 # 1809 <_fstack+0x1209>
3800020c:	00e7a023          	sw	a4,0(a5)
38000210:	260007b7          	lui	a5,0x26000
38000214:	07878793          	addi	a5,a5,120 # 26000078 <_esram_rom+0x15fffd58>
38000218:	00002737          	lui	a4,0x2
3800021c:	80970713          	addi	a4,a4,-2039 # 1809 <_fstack+0x1209>
38000220:	00e7a023          	sw	a4,0(a5)
38000224:	260007b7          	lui	a5,0x26000
38000228:	07478793          	addi	a5,a5,116 # 26000074 <_esram_rom+0x15fffd54>
3800022c:	00002737          	lui	a4,0x2
38000230:	80970713          	addi	a4,a4,-2039 # 1809 <_fstack+0x1209>
38000234:	00e7a023          	sw	a4,0(a5)
38000238:	260007b7          	lui	a5,0x26000
3800023c:	07078793          	addi	a5,a5,112 # 26000070 <_esram_rom+0x15fffd50>
38000240:	00002737          	lui	a4,0x2
38000244:	80970713          	addi	a4,a4,-2039 # 1809 <_fstack+0x1209>
38000248:	00e7a023          	sw	a4,0(a5)
3800024c:	260007b7          	lui	a5,0x26000
38000250:	06c78793          	addi	a5,a5,108 # 2600006c <_esram_rom+0x15fffd4c>
38000254:	00002737          	lui	a4,0x2
38000258:	80970713          	addi	a4,a4,-2039 # 1809 <_fstack+0x1209>
3800025c:	00e7a023          	sw	a4,0(a5)
38000260:	260007b7          	lui	a5,0x26000
38000264:	06878793          	addi	a5,a5,104 # 26000068 <_esram_rom+0x15fffd48>
38000268:	00002737          	lui	a4,0x2
3800026c:	80970713          	addi	a4,a4,-2039 # 1809 <_fstack+0x1209>
38000270:	00e7a023          	sw	a4,0(a5)
38000274:	260007b7          	lui	a5,0x26000
38000278:	06478793          	addi	a5,a5,100 # 26000064 <_esram_rom+0x15fffd44>
3800027c:	00002737          	lui	a4,0x2
38000280:	80970713          	addi	a4,a4,-2039 # 1809 <_fstack+0x1209>
38000284:	00e7a023          	sw	a4,0(a5)
38000288:	260007b7          	lui	a5,0x26000
3800028c:	00100713          	li	a4,1
38000290:	00e7a023          	sw	a4,0(a5) # 26000000 <_esram_rom+0x15fffce0>
38000294:	00000013          	nop
38000298:	260007b7          	lui	a5,0x26000
3800029c:	0007a703          	lw	a4,0(a5) # 26000000 <_esram_rom+0x15fffce0>
380002a0:	00100793          	li	a5,1
380002a4:	fef70ae3          	beq	a4,a5,38000298 <main+0x160>
380002a8:	d59ff0ef          	jal	ra,38000000 <initfir>
380002ac:	fe042623          	sw	zero,-20(s0)
380002b0:	0180006f          	j	380002c8 <main+0x190>
380002b4:	d4dff0ef          	jal	ra,38000000 <initfir>
380002b8:	dc9ff0ef          	jal	ra,38000080 <fir_excute>
380002bc:	fec42783          	lw	a5,-20(s0)
380002c0:	00178793          	addi	a5,a5,1
380002c4:	fef42623          	sw	a5,-20(s0)
380002c8:	fec42703          	lw	a4,-20(s0)
380002cc:	00200793          	li	a5,2
380002d0:	fee7d2e3          	bge	a5,a4,380002b4 <main+0x17c>
380002d4:	00000013          	nop
380002d8:	00000013          	nop
380002dc:	01c12083          	lw	ra,28(sp)
380002e0:	01812403          	lw	s0,24(sp)
380002e4:	02010113          	addi	sp,sp,32
380002e8:	00008067          	ret


00000000 <.riscv.attributes>:
   0:	1f41                	.2byte	0x1f41
   2:	0000                	.2byte	0x0
   4:	7200                	.2byte	0x7200
   6:	7369                	.2byte	0x7369
   8:	01007663          	bgeu	zero,a6,14 <taps+0x14>
   c:	0015                	.2byte	0x15
   e:	0000                	.2byte	0x0
  10:	1004                	.2byte	0x1004
  12:	7205                	.2byte	0x7205
  14:	3376                	.2byte	0x3376
  16:	6932                	.2byte	0x6932
  18:	7032                	.2byte	0x7032
  1a:	0030                	.2byte	0x30
  1c:	0108                	.2byte	0x108
  1e:	0b0a                	.2byte	0xb0a


00000000 <.comment>:
   0:	3a434347          	.4byte	0x3a434347
   4:	2820                	.2byte	0x2820
   6:	61653167          	.4byte	0x61653167
   a:	3739                	.2byte	0x3739
   c:	6538                	.2byte	0x6538
   e:	36363033          	.4byte	0x36363033
  12:	2029                	.2byte	0x2029
  14:	3231                	.2byte	0x3231
  16:	312e                	.2byte	0x312e
  18:	302e                	.2byte	0x302e
	...


00000000 <.debug_line>:
   0:	0200                	.2byte	0x200
   2:	0000                	.2byte	0x0
   4:	0005                	.2byte	0x5
   6:	0004                	.2byte	0x4
   8:	002e                	.2byte	0x2e
   a:	0000                	.2byte	0x0
   c:	0101                	.2byte	0x101
   e:	fb01                	.2byte	0xfb01
  10:	0d0e                	.2byte	0xd0e
  12:	0100                	.2byte	0x100
  14:	0101                	.2byte	0x101
  16:	0001                	.2byte	0x1
  18:	0000                	.2byte	0x0
  1a:	0001                	.2byte	0x1
  1c:	0100                	.2byte	0x100
  1e:	0101                	.2byte	0x101
  20:	021f 0000 0000      	.byte	0x1f, 0x02, 0x00, 0x00, 0x00, 0x00
  26:	005f 0000 0102      	.byte	0x5f, 0x00, 0x00, 0x00, 0x02, 0x01
  2c:	021f 020f 006e      	.byte	0x1f, 0x02, 0x0f, 0x02, 0x6e, 0x00
  32:	0000                	.2byte	0x0
  34:	6e01                	.2byte	0x6e01
  36:	0000                	.2byte	0x0
  38:	0100                	.2byte	0x100
  3a:	0500                	.2byte	0x500
  3c:	0002                	.2byte	0x2
  3e:	0000                	.2byte	0x0
  40:	1710                	.2byte	0x1710
  42:	04090103          	lb	sp,64(s2)
  46:	0100                	.2byte	0x100
  48:	04090103          	lb	sp,64(s2)
  4c:	0100                	.2byte	0x100
  4e:	04090103          	lb	sp,64(s2)
  52:	0100                	.2byte	0x100
  54:	04090103          	lb	sp,64(s2)
  58:	0100                	.2byte	0x100
  5a:	04090103          	lb	sp,64(s2)
  5e:	0100                	.2byte	0x100
  60:	04090103          	lb	sp,64(s2)
  64:	0100                	.2byte	0x100
  66:	04090103          	lb	sp,64(s2)
  6a:	0100                	.2byte	0x100
  6c:	04090403          	lb	s0,64(s2)
  70:	0100                	.2byte	0x100
  72:	04090103          	lb	sp,64(s2)
  76:	0100                	.2byte	0x100
  78:	04090103          	lb	sp,64(s2)
  7c:	0100                	.2byte	0x100
  7e:	04090103          	lb	sp,64(s2)
  82:	0100                	.2byte	0x100
  84:	04090103          	lb	sp,64(s2)
  88:	0100                	.2byte	0x100
  8a:	04090103          	lb	sp,64(s2)
  8e:	0100                	.2byte	0x100
  90:	04090103          	lb	sp,64(s2)
  94:	0100                	.2byte	0x100
  96:	04090103          	lb	sp,64(s2)
  9a:	0100                	.2byte	0x100
  9c:	04090103          	lb	sp,64(s2)
  a0:	0100                	.2byte	0x100
  a2:	04090103          	lb	sp,64(s2)
  a6:	0100                	.2byte	0x100
  a8:	04090103          	lb	sp,64(s2)
  ac:	0100                	.2byte	0x100
  ae:	04090103          	lb	sp,64(s2)
  b2:	0100                	.2byte	0x100
  b4:	04090103          	lb	sp,64(s2)
  b8:	0100                	.2byte	0x100
  ba:	04090103          	lb	sp,64(s2)
  be:	0100                	.2byte	0x100
  c0:	04090103          	lb	sp,64(s2)
  c4:	0100                	.2byte	0x100
  c6:	04090103          	lb	sp,64(s2)
  ca:	0100                	.2byte	0x100
  cc:	04090103          	lb	sp,64(s2)
  d0:	0100                	.2byte	0x100
  d2:	04090103          	lb	sp,64(s2)
  d6:	0100                	.2byte	0x100
  d8:	04090103          	lb	sp,64(s2)
  dc:	0100                	.2byte	0x100
  de:	04090103          	lb	sp,64(s2)
  e2:	0100                	.2byte	0x100
  e4:	04090103          	lb	sp,64(s2)
  e8:	0100                	.2byte	0x100
  ea:	04090103          	lb	sp,64(s2)
  ee:	0100                	.2byte	0x100
  f0:	04090103          	lb	sp,64(s2)
  f4:	0100                	.2byte	0x100
  f6:	04090103          	lb	sp,64(s2)
  fa:	0100                	.2byte	0x100
  fc:	04090103          	lb	sp,64(s2)
 100:	0100                	.2byte	0x100
 102:	04090103          	lb	sp,64(s2)
 106:	0100                	.2byte	0x100
 108:	04090103          	lb	sp,64(s2)
 10c:	0100                	.2byte	0x100
 10e:	04090103          	lb	sp,64(s2)
 112:	0100                	.2byte	0x100
 114:	04090103          	lb	sp,64(s2)
 118:	0100                	.2byte	0x100
 11a:	04090103          	lb	sp,64(s2)
 11e:	0100                	.2byte	0x100
 120:	04090103          	lb	sp,64(s2)
 124:	0100                	.2byte	0x100
 126:	04090103          	lb	sp,64(s2)
 12a:	0100                	.2byte	0x100
 12c:	04090103          	lb	sp,64(s2)
 130:	0100                	.2byte	0x100
 132:	04090103          	lb	sp,64(s2)
 136:	0100                	.2byte	0x100
 138:	04090103          	lb	sp,64(s2)
 13c:	0100                	.2byte	0x100
 13e:	04090103          	lb	sp,64(s2)
 142:	0100                	.2byte	0x100
 144:	04090503          	lb	a0,64(s2)
 148:	0100                	.2byte	0x100
 14a:	04090103          	lb	sp,64(s2)
 14e:	0100                	.2byte	0x100
 150:	08090103          	lb	sp,128(s2)
 154:	0100                	.2byte	0x100
 156:	04090303          	lb	t1,64(s2)
 15a:	0100                	.2byte	0x100
 15c:	08090103          	lb	sp,128(s2)
 160:	0100                	.2byte	0x100
 162:	08090103          	lb	sp,128(s2)
 166:	0100                	.2byte	0x100
 168:	08090203          	lb	tp,128(s2)
 16c:	0100                	.2byte	0x100
 16e:	04090103          	lb	sp,64(s2)
 172:	0100                	.2byte	0x100
 174:	04090103          	lb	sp,64(s2)
 178:	0100                	.2byte	0x100
 17a:	04090103          	lb	sp,64(s2)
 17e:	0100                	.2byte	0x100
 180:	04090103          	lb	sp,64(s2)
 184:	0100                	.2byte	0x100
 186:	04090103          	lb	sp,64(s2)
 18a:	0100                	.2byte	0x100
 18c:	04090403          	lb	s0,64(s2)
 190:	0100                	.2byte	0x100
 192:	04090103          	lb	sp,64(s2)
 196:	0100                	.2byte	0x100
 198:	04090103          	lb	sp,64(s2)
 19c:	0100                	.2byte	0x100
 19e:	08090203          	lb	tp,128(s2)
 1a2:	0100                	.2byte	0x100
 1a4:	04090103          	lb	sp,64(s2)
 1a8:	0100                	.2byte	0x100
 1aa:	04090103          	lb	sp,64(s2)
 1ae:	0100                	.2byte	0x100
 1b0:	04090103          	lb	sp,64(s2)
 1b4:	0100                	.2byte	0x100
 1b6:	04090103          	lb	sp,64(s2)
 1ba:	0100                	.2byte	0x100
 1bc:	04090103          	lb	sp,64(s2)
 1c0:	0100                	.2byte	0x100
 1c2:	04090403          	lb	s0,64(s2)
 1c6:	0100                	.2byte	0x100
 1c8:	04090103          	lb	sp,64(s2)
 1cc:	0100                	.2byte	0x100
 1ce:	04090203          	lb	tp,64(s2)
 1d2:	0100                	.2byte	0x100
 1d4:	04090103          	lb	sp,64(s2)
 1d8:	0100                	.2byte	0x100
 1da:	04090103          	lb	sp,64(s2)
 1de:	0100                	.2byte	0x100
 1e0:	04090203          	lb	tp,64(s2)
 1e4:	0100                	.2byte	0x100
 1e6:	04090403          	lb	s0,64(s2)
 1ea:	0100                	.2byte	0x100
 1ec:	08090103          	lb	sp,128(s2)
 1f0:	0100                	.2byte	0x100
 1f2:	04090203          	lb	tp,64(s2)
 1f6:	0100                	.2byte	0x100
 1f8:	08090203          	lb	tp,128(s2)
 1fc:	0100                	.2byte	0x100
 1fe:	0409                	.2byte	0x409
 200:	0000                	.2byte	0x0
 202:	0101                	.2byte	0x101
 204:	00cd                	.2byte	0xcd
 206:	0000                	.2byte	0x0
 208:	0005                	.2byte	0x5
 20a:	0004                	.2byte	0x4
 20c:	0041                	.2byte	0x41
 20e:	0000                	.2byte	0x0
 210:	0101                	.2byte	0x101
 212:	fb01                	.2byte	0xfb01
 214:	0d0e                	.2byte	0xd0e
 216:	0100                	.2byte	0x100
 218:	0101                	.2byte	0x101
 21a:	0001                	.2byte	0x1
 21c:	0000                	.2byte	0x0
 21e:	0001                	.2byte	0x1
 220:	0100                	.2byte	0x100
 222:	0101                	.2byte	0x101
 224:	031f 0000 0000      	.byte	0x1f, 0x03, 0x00, 0x00, 0x00, 0x00
 22a:	005f 0000 008e      	.byte	0x5f, 0x00, 0x00, 0x00, 0x8e, 0x00
 230:	0000                	.2byte	0x0
 232:	0102                	.2byte	0x102
 234:	021f 050f 0088      	.byte	0x1f, 0x02, 0x0f, 0x05, 0x88, 0x00
 23a:	0000                	.2byte	0x0
 23c:	c401                	.2byte	0xc401
 23e:	0000                	.2byte	0x0
 240:	0100                	.2byte	0x100
 242:	00cd                	.2byte	0xcd
 244:	0000                	.2byte	0x0
 246:	8801                	.2byte	0x8801
 248:	0000                	.2byte	0x0
 24a:	0100                	.2byte	0x100
 24c:	000000d7          	.4byte	0xd7
 250:	0502                	.2byte	0x502
 252:	0001                	.2byte	0x1
 254:	0205                	.2byte	0x205
 256:	0148                	.2byte	0x148
 258:	1000                	.2byte	0x1000
 25a:	03010e03          	lb	t3,48(sp)
 25e:	000c090b          	.4byte	0xc090b
 262:	0301                	.2byte	0x301
 264:	00100903          	lb	s2,1(zero) # 1 <taps+0x1>
 268:	0301                	.2byte	0x301
 26a:	0904                	.2byte	0x904
 26c:	000c                	.2byte	0xc
 26e:	0401                	.2byte	0x401
 270:	0302                	.2byte	0x302
 272:	097d                	.2byte	0x97d
 274:	0010                	.2byte	0x10
 276:	0501                	.2byte	0x501
 278:	0302                	.2byte	0x302
 27a:	0901                	.2byte	0x901
 27c:	0010                	.2byte	0x10
 27e:	0501                	.2byte	0x501
 280:	0301                	.2byte	0x301
 282:	0901                	.2byte	0x901
 284:	0008                	.2byte	0x8
 286:	0401                	.2byte	0x401
 288:	09710303          	lb	t1,151(sp)
 28c:	0010                	.2byte	0x10
 28e:	0501                	.2byte	0x501
 290:	0302                	.2byte	0x302
 292:	0905                	.2byte	0x905
 294:	0010                	.2byte	0x10
 296:	0501                	.2byte	0x501
 298:	0305                	.2byte	0x305
 29a:	090a                	.2byte	0x90a
 29c:	0008                	.2byte	0x8
 29e:	0501                	.2byte	0x501
 2a0:	033a                	.2byte	0x33a
 2a2:	0900                	.2byte	0x900
 2a4:	0008                	.2byte	0x8
 2a6:	0501                	.2byte	0x501
 2a8:	0305                	.2byte	0x305
 2aa:	0901                	.2byte	0x901
 2ac:	0008                	.2byte	0x8
 2ae:	0501                	.2byte	0x501
 2b0:	0900033b          	.4byte	0x900033b
 2b4:	0008                	.2byte	0x8
 2b6:	0501                	.2byte	0x501
 2b8:	0309                	.2byte	0x309
 2ba:	0901                	.2byte	0x901
 2bc:	0008                	.2byte	0x8
 2be:	0501                	.2byte	0x501
 2c0:	0305                	.2byte	0x305
 2c2:	0908                	.2byte	0x908
 2c4:	0008                	.2byte	0x8
 2c6:	0501                	.2byte	0x501
 2c8:	0301                	.2byte	0x301
 2ca:	0906                	.2byte	0x906
 2cc:	0004                	.2byte	0x4
 2ce:	0901                	.2byte	0x901
 2d0:	0010                	.2byte	0x10
 2d2:	0100                	.2byte	0x100
 2d4:	7801                	.2byte	0x7801
 2d6:	0001                	.2byte	0x1
 2d8:	0500                	.2byte	0x500
 2da:	0400                	.2byte	0x400
 2dc:	3800                	.2byte	0x3800
 2de:	0000                	.2byte	0x0
 2e0:	0100                	.2byte	0x100
 2e2:	0101                	.2byte	0x101
 2e4:	000d0efb          	.4byte	0xd0efb
 2e8:	0101                	.2byte	0x101
 2ea:	0101                	.2byte	0x101
 2ec:	0000                	.2byte	0x0
 2ee:	0100                	.2byte	0x100
 2f0:	0000                	.2byte	0x0
 2f2:	0101                	.2byte	0x101
 2f4:	1f01                	.2byte	0x1f01
 2f6:	0002                	.2byte	0x2
 2f8:	0000                	.2byte	0x0
 2fa:	8e00                	.2byte	0x8e00
 2fc:	0000                	.2byte	0x0
 2fe:	0200                	.2byte	0x200
 300:	1f01                	.2byte	0x1f01
 302:	0f02                	.2byte	0xf02
 304:	e404                	.2byte	0xe404
 306:	0000                	.2byte	0x0
 308:	0000                	.2byte	0x0
 30a:	00e4                	.2byte	0xe4
 30c:	0000                	.2byte	0x0
 30e:	ea00                	.2byte	0xea00
 310:	0000                	.2byte	0x0
 312:	0000                	.2byte	0x0
 314:	000000d7          	.4byte	0xd7
 318:	0501                	.2byte	0x501
 31a:	003d                	.2byte	0x3d
 31c:	0205                	.2byte	0x205
 31e:	0000                	.2byte	0x0
 320:	3800                	.2byte	0x3800
 322:	0515                	.2byte	0x515
 324:	09030303          	lb	t1,144(t1)
 328:	000c                	.2byte	0xc
 32a:	0501                	.2byte	0x501
 32c:	0324                	.2byte	0x324
 32e:	0900                	.2byte	0x900
 330:	0008                	.2byte	0x8
 332:	0501                	.2byte	0x501
 334:	0310                	.2byte	0x310
 336:	00080903          	lb	s2,0(a6)
 33a:	0501                	.2byte	0x501
 33c:	0302                	.2byte	0x302
 33e:	0900                	.2byte	0x900
 340:	0004                	.2byte	0x4
 342:	0501                	.2byte	0x501
 344:	04020033          	.4byte	0x4020033
 348:	09010303          	lb	t1,144(sp)
 34c:	0004                	.2byte	0x4
 34e:	0501                	.2byte	0x501
 350:	0025                	.2byte	0x25
 352:	0402                	.2byte	0x402
 354:	09000303          	lb	t1,144(zero) # 90 <outputsignal+0x5c>
 358:	0014                	.2byte	0x14
 35a:	0501                	.2byte	0x501
 35c:	04020033          	.4byte	0x4020033
 360:	09000303          	lb	t1,144(zero) # 90 <outputsignal+0x5c>
 364:	0014                	.2byte	0x14
 366:	0501                	.2byte	0x501
 368:	002d                	.2byte	0x2d
 36a:	0402                	.2byte	0x402
 36c:	09000303          	lb	t1,144(zero) # 90 <outputsignal+0x5c>
 370:	0004                	.2byte	0x4
 372:	0501                	.2byte	0x501
 374:	0020                	.2byte	0x20
 376:	0402                	.2byte	0x402
 378:	097f0303          	lb	t1,151(t5)
 37c:	0004                	.2byte	0x4
 37e:	0501                	.2byte	0x501
 380:	0019                	.2byte	0x19
 382:	0402                	.2byte	0x402
 384:	0301                	.2byte	0x301
 386:	0900                	.2byte	0x900
 388:	000c                	.2byte	0xc
 38a:	0501                	.2byte	0x501
 38c:	0301                	.2byte	0x301
 38e:	0904                	.2byte	0x904
 390:	000c                	.2byte	0xc
 392:	0501                	.2byte	0x501
 394:	0340                	.2byte	0x340
 396:	0902                	.2byte	0x902
 398:	0014                	.2byte	0x14
 39a:	0501                	.2byte	0x501
 39c:	09040303          	lb	t1,144(s0)
 3a0:	0010                	.2byte	0x10
 3a2:	0501                	.2byte	0x501
 3a4:	0324                	.2byte	0x324
 3a6:	0900                	.2byte	0x900
 3a8:	0008                	.2byte	0x8
 3aa:	0501                	.2byte	0x501
 3ac:	030a                	.2byte	0x30a
 3ae:	0906                	.2byte	0x906
 3b0:	0008                	.2byte	0x8
 3b2:	0501                	.2byte	0x501
 3b4:	0900032b          	.4byte	0x900032b
 3b8:	0004                	.2byte	0x4
 3ba:	0501                	.2byte	0x501
 3bc:	031a                	.2byte	0x31a
 3be:	0902                	.2byte	0x902
 3c0:	0008                	.2byte	0x8
 3c2:	0501                	.2byte	0x501
 3c4:	0903030f          	.4byte	0x903030f
 3c8:	0004                	.2byte	0x4
 3ca:	0501                	.2byte	0x501
 3cc:	030c                	.2byte	0x30c
 3ce:	0901                	.2byte	0x901
 3d0:	0004                	.2byte	0x4
 3d2:	0501                	.2byte	0x501
 3d4:	032d                	.2byte	0x32d
 3d6:	0900                	.2byte	0x900
 3d8:	0008                	.2byte	0x8
 3da:	0501                	.2byte	0x501
 3dc:	0324                	.2byte	0x324
 3de:	00080903          	lb	s2,0(a6)
 3e2:	0501                	.2byte	0x501
 3e4:	031d                	.2byte	0x31d
 3e6:	0900                	.2byte	0x900
 3e8:	000c                	.2byte	0xc
 3ea:	0501                	.2byte	0x501
 3ec:	0324                	.2byte	0x324
 3ee:	0900                	.2byte	0x900
 3f0:	0004                	.2byte	0x4
 3f2:	0501                	.2byte	0x501
 3f4:	0321                	.2byte	0x321
 3f6:	0900                	.2byte	0x900
 3f8:	0004                	.2byte	0x4
 3fa:	0501                	.2byte	0x501
 3fc:	09010313          	addi	t1,sp,144
 400:	0010                	.2byte	0x10
 402:	0501                	.2byte	0x501
 404:	0312                	.2byte	0x312
 406:	0008097b          	.4byte	0x8097b
 40a:	0501                	.2byte	0x501
 40c:	030a                	.2byte	0x30a
 40e:	0008090b          	.4byte	0x8090b
 412:	0501                	.2byte	0x501
 414:	0339                	.2byte	0x339
 416:	00080903          	lb	s2,0(a6)
 41a:	0501                	.2byte	0x501
 41c:	0341                	.2byte	0x341
 41e:	0900                	.2byte	0x900
 420:	0008                	.2byte	0x8
 422:	0501                	.2byte	0x501
 424:	09000347          	.4byte	0x9000347
 428:	0004                	.2byte	0x4
 42a:	0501                	.2byte	0x501
 42c:	030a                	.2byte	0x30a
 42e:	0900                	.2byte	0x900
 430:	0008                	.2byte	0x8
 432:	0501                	.2byte	0x501
 434:	0900032b          	.4byte	0x900032b
 438:	0008                	.2byte	0x8
 43a:	0501                	.2byte	0x501
 43c:	0309                	.2byte	0x309
 43e:	0902                	.2byte	0x902
 440:	0004                	.2byte	0x4
 442:	0501                	.2byte	0x501
 444:	0301                	.2byte	0x301
 446:	0901                	.2byte	0x901
 448:	0004                	.2byte	0x4
 44a:	0901                	.2byte	0x901
 44c:	0014                	.2byte	0x14
 44e:	0100                	.2byte	0x100
 450:	7b01                	.2byte	0x7b01
 452:	0002                	.2byte	0x2
 454:	0500                	.2byte	0x500
 456:	0400                	.2byte	0x400
 458:	4100                	.2byte	0x4100
 45a:	0000                	.2byte	0x0
 45c:	0100                	.2byte	0x100
 45e:	0101                	.2byte	0x101
 460:	000d0efb          	.4byte	0xd0efb
 464:	0101                	.2byte	0x101
 466:	0101                	.2byte	0x101
 468:	0000                	.2byte	0x0
 46a:	0100                	.2byte	0x100
 46c:	0000                	.2byte	0x0
 46e:	0101                	.2byte	0x101
 470:	1f01                	.2byte	0x1f01
 472:	00000003          	lb	zero,0(zero) # 0 <taps>
 476:	5f00                	.2byte	0x5f00
 478:	0000                	.2byte	0x0
 47a:	8e00                	.2byte	0x8e00
 47c:	0000                	.2byte	0x0
 47e:	0200                	.2byte	0x200
 480:	1f01                	.2byte	0x1f01
 482:	0f02                	.2byte	0xf02
 484:	f005                	.2byte	0xf005
 486:	0000                	.2byte	0x0
 488:	0000                	.2byte	0x0
 48a:	00c4                	.2byte	0xc4
 48c:	0000                	.2byte	0x0
 48e:	fe01                	.2byte	0xfe01
 490:	0000                	.2byte	0x0
 492:	0100                	.2byte	0x100
 494:	00f0                	.2byte	0xf0
 496:	0000                	.2byte	0x0
 498:	d700                	.2byte	0xd700
 49a:	0000                	.2byte	0x0
 49c:	0200                	.2byte	0x200
 49e:	0105                	.2byte	0x105
 4a0:	0500                	.2byte	0x500
 4a2:	fc02                	.2byte	0xfc02
 4a4:	0001                	.2byte	0x1
 4a6:	0310                	.2byte	0x310
 4a8:	010e                	.2byte	0x10e
 4aa:	0c090b03          	lb	s6,192(s2)
 4ae:	0100                	.2byte	0x100
 4b0:	10090303          	lb	t1,256(s2)
 4b4:	0100                	.2byte	0x100
 4b6:	0c090403          	lb	s0,192(s2)
 4ba:	0100                	.2byte	0x100
 4bc:	0204                	.2byte	0x204
 4be:	10097203          	.4byte	0x10097203
 4c2:	0100                	.2byte	0x100
 4c4:	0505                	.2byte	0x505
 4c6:	18090103          	lb	sp,384(s2)
 4ca:	0100                	.2byte	0x100
 4cc:	0305                	.2byte	0x305
 4ce:	0c090103          	lb	sp,192(s2)
 4d2:	0100                	.2byte	0x100
 4d4:	0b05                	.2byte	0xb05
 4d6:	08090103          	lb	sp,128(s2)
 4da:	0100                	.2byte	0x100
 4dc:	0d05                	.2byte	0xd05
 4de:	0200                	.2byte	0x200
 4e0:	0104                	.2byte	0x104
 4e2:	04090003          	lb	zero,64(s2)
 4e6:	0100                	.2byte	0x100
 4e8:	3c05                	.2byte	0x3c05
 4ea:	0200                	.2byte	0x200
 4ec:	0104                	.2byte	0x104
 4ee:	0c090003          	lb	zero,192(s2)
 4f2:	0100                	.2byte	0x100
 4f4:	0305                	.2byte	0x305
 4f6:	08090103          	lb	sp,128(s2)
 4fa:	0100                	.2byte	0x100
 4fc:	3205                	.2byte	0x3205
 4fe:	08090003          	lb	zero,128(s2)
 502:	0100                	.2byte	0x100
 504:	0105                	.2byte	0x105
 506:	08090103          	lb	sp,128(s2)
 50a:	0100                	.2byte	0x100
 50c:	14090303          	lb	t1,320(s2)
 510:	0100                	.2byte	0x100
 512:	0805                	.2byte	0x805
 514:	14090103          	lb	sp,320(s2)
 518:	0100                	.2byte	0x100
 51a:	0e05                	.2byte	0xe05
 51c:	04090103          	lb	sp,64(s2)
 520:	0100                	.2byte	0x100
 522:	0305                	.2byte	0x305
 524:	0c090003          	lb	zero,192(s2)
 528:	0100                	.2byte	0x100
 52a:	0905                	.2byte	0x905
 52c:	0c097f03          	.4byte	0xc097f03
 530:	0100                	.2byte	0x100
 532:	0105                	.2byte	0x105
 534:	0c090203          	lb	tp,192(s2)
 538:	0100                	.2byte	0x100
 53a:	1809                	.2byte	0x1809
 53c:	0000                	.2byte	0x0
 53e:	0101                	.2byte	0x101
 540:	0304                	.2byte	0x304
 542:	0105                	.2byte	0x105
 544:	0500                	.2byte	0x500
 546:	3802                	.2byte	0x3802
 548:	0001                	.2byte	0x1
 54a:	1938                	.2byte	0x1938
 54c:	0a05                	.2byte	0xa05
 54e:	10090303          	lb	t1,256(s2)
 552:	0100                	.2byte	0x100
 554:	2b05                	.2byte	0x2b05
 556:	08090003          	lb	zero,128(s2)
 55a:	0100                	.2byte	0x100
 55c:	0a05                	.2byte	0xa05
 55e:	0c090103          	lb	sp,192(s2)
 562:	0100                	.2byte	0x100
 564:	2b05                	.2byte	0x2b05
 566:	08090003          	lb	zero,128(s2)
 56a:	0100                	.2byte	0x100
 56c:	0a05                	.2byte	0xa05
 56e:	0c090103          	lb	sp,192(s2)
 572:	0100                	.2byte	0x100
 574:	2b05                	.2byte	0x2b05
 576:	08090003          	lb	zero,128(s2)
 57a:	0100                	.2byte	0x100
 57c:	0a05                	.2byte	0xa05
 57e:	0c090103          	lb	sp,192(s2)
 582:	0100                	.2byte	0x100
 584:	2b05                	.2byte	0x2b05
 586:	08090003          	lb	zero,128(s2)
 58a:	0100                	.2byte	0x100
 58c:	0a05                	.2byte	0xa05
 58e:	0c090103          	lb	sp,192(s2)
 592:	0100                	.2byte	0x100
 594:	2b05                	.2byte	0x2b05
 596:	08090003          	lb	zero,128(s2)
 59a:	0100                	.2byte	0x100
 59c:	0a05                	.2byte	0xa05
 59e:	0c090103          	lb	sp,192(s2)
 5a2:	0100                	.2byte	0x100
 5a4:	2b05                	.2byte	0x2b05
 5a6:	08090003          	lb	zero,128(s2)
 5aa:	0100                	.2byte	0x100
 5ac:	0a05                	.2byte	0xa05
 5ae:	0c090103          	lb	sp,192(s2)
 5b2:	0100                	.2byte	0x100
 5b4:	2b05                	.2byte	0x2b05
 5b6:	08090003          	lb	zero,128(s2)
 5ba:	0100                	.2byte	0x100
 5bc:	0a05                	.2byte	0xa05
 5be:	0c090103          	lb	sp,192(s2)
 5c2:	0100                	.2byte	0x100
 5c4:	2b05                	.2byte	0x2b05
 5c6:	08090003          	lb	zero,128(s2)
 5ca:	0100                	.2byte	0x100
 5cc:	0a05                	.2byte	0xa05
 5ce:	0c090103          	lb	sp,192(s2)
 5d2:	0100                	.2byte	0x100
 5d4:	2b05                	.2byte	0x2b05
 5d6:	08090003          	lb	zero,128(s2)
 5da:	0100                	.2byte	0x100
 5dc:	0a05                	.2byte	0xa05
 5de:	0c090103          	lb	sp,192(s2)
 5e2:	0100                	.2byte	0x100
 5e4:	2b05                	.2byte	0x2b05
 5e6:	08090003          	lb	zero,128(s2)
 5ea:	0100                	.2byte	0x100
 5ec:	0a05                	.2byte	0xa05
 5ee:	0c090103          	lb	sp,192(s2)
 5f2:	0100                	.2byte	0x100
 5f4:	2b05                	.2byte	0x2b05
 5f6:	08090003          	lb	zero,128(s2)
 5fa:	0100                	.2byte	0x100
 5fc:	0a05                	.2byte	0xa05
 5fe:	0c090103          	lb	sp,192(s2)
 602:	0100                	.2byte	0x100
 604:	2b05                	.2byte	0x2b05
 606:	08090003          	lb	zero,128(s2)
 60a:	0100                	.2byte	0x100
 60c:	0a05                	.2byte	0xa05
 60e:	0c090103          	lb	sp,192(s2)
 612:	0100                	.2byte	0x100
 614:	2b05                	.2byte	0x2b05
 616:	08090003          	lb	zero,128(s2)
 61a:	0100                	.2byte	0x100
 61c:	0a05                	.2byte	0xa05
 61e:	0c090103          	lb	sp,192(s2)
 622:	0100                	.2byte	0x100
 624:	2b05                	.2byte	0x2b05
 626:	08090003          	lb	zero,128(s2)
 62a:	0100                	.2byte	0x100
 62c:	0a05                	.2byte	0xa05
 62e:	0c090103          	lb	sp,192(s2)
 632:	0100                	.2byte	0x100
 634:	2b05                	.2byte	0x2b05
 636:	08090003          	lb	zero,128(s2)
 63a:	0100                	.2byte	0x100
 63c:	0a05                	.2byte	0xa05
 63e:	0c090103          	lb	sp,192(s2)
 642:	0100                	.2byte	0x100
 644:	2b05                	.2byte	0x2b05
 646:	08090003          	lb	zero,128(s2)
 64a:	0100                	.2byte	0x100
 64c:	0a05                	.2byte	0xa05
 64e:	0c090303          	lb	t1,192(s2)
 652:	0100                	.2byte	0x100
 654:	2b05                	.2byte	0x2b05
 656:	04090003          	lb	zero,64(s2)
 65a:	0100                	.2byte	0x100
 65c:	0f05                	.2byte	0xf05
 65e:	08090103          	lb	sp,128(s2)
 662:	0100                	.2byte	0x100
 664:	1105                	.2byte	0x1105
 666:	0200                	.2byte	0x200
 668:	0104                	.2byte	0x104
 66a:	04090003          	lb	zero,64(s2)
 66e:	0100                	.2byte	0x100
 670:	3205                	.2byte	0x3205
 672:	0200                	.2byte	0x200
 674:	0104                	.2byte	0x104
 676:	08090003          	lb	zero,128(s2)
 67a:	0100                	.2byte	0x100
 67c:	0205                	.2byte	0x205
 67e:	08090203          	lb	tp,128(s2)
 682:	0100                	.2byte	0x100
 684:	0b05                	.2byte	0xb05
 686:	04090203          	lb	tp,64(s2)
 68a:	0100                	.2byte	0x100
 68c:	0205                	.2byte	0x205
 68e:	04090003          	lb	zero,64(s2)
 692:	0100                	.2byte	0x100
 694:	0305                	.2byte	0x305
 696:	0200                	.2byte	0x200
 698:	0304                	.2byte	0x304
 69a:	04090103          	lb	sp,64(s2)
 69e:	0100                	.2byte	0x100
 6a0:	0200                	.2byte	0x200
 6a2:	0304                	.2byte	0x304
 6a4:	04090103          	lb	sp,64(s2)
 6a8:	0100                	.2byte	0x100
 6aa:	1a05                	.2byte	0x1a05
 6ac:	0200                	.2byte	0x200
 6ae:	0304                	.2byte	0x304
 6b0:	04097e03          	.4byte	0x4097e03
 6b4:	0100                	.2byte	0x100
 6b6:	1405                	.2byte	0x1405
 6b8:	0200                	.2byte	0x200
 6ba:	0104                	.2byte	0x104
 6bc:	0c090003          	lb	zero,192(s2)
 6c0:	0100                	.2byte	0x100
 6c2:	0105                	.2byte	0x105
 6c4:	0c090503          	lb	a0,192(s2)
 6c8:	0100                	.2byte	0x100
 6ca:	1809                	.2byte	0x1809
 6cc:	0000                	.2byte	0x0
 6ce:	0101                	.2byte	0x101


00000000 <.debug_line_str>:
   0:	6d6f682f          	.4byte	0x6d6f682f
   4:	2f65                	.2byte	0x2f65
   6:	6275                	.2byte	0x6275
   8:	6e75                	.2byte	0x6e75
   a:	7574                	.2byte	0x7574
   c:	7365442f          	.4byte	0x7365442f
  10:	706f746b          	.4byte	0x706f746b
  14:	3230322f          	.4byte	0x3230322f
  18:	5f34                	.2byte	0x5f34
  1a:	6146                	.2byte	0x6146
  1c:	6c6c                	.2byte	0x6c6c
  1e:	4e5f 5554 415f      	.byte	0x5f, 0x4e, 0x54, 0x55, 0x5f, 0x41
  24:	4841                	.2byte	0x4841
  26:	534c                	.2byte	0x534c
  28:	756f632f          	.4byte	0x756f632f
  2c:	7372                	.2byte	0x7372
  2e:	2d65                	.2byte	0x2d65
  30:	616c                	.2byte	0x616c
  32:	5f62                	.2byte	0x5f62
  34:	2f34                	.2byte	0x2f34
  36:	616c                	.2byte	0x616c
  38:	2d62                	.2byte	0x2d62
  3a:	61726163          	bltu	tp,s7,63c <_fstack+0x3c>
  3e:	6576                	.2byte	0x6576
  40:	5f6c                	.2byte	0x5f6c
  42:	6966                	.2byte	0x6966
  44:	2f72                	.2byte	0x2f72
  46:	6574                	.2byte	0x6574
  48:	65627473          	csrrci	s0,0x656,4
  4c:	636e                	.2byte	0x636e
  4e:	2f68                	.2byte	0x2f68
  50:	6e756f63          	bltu	a0,t2,74e <_fstack+0x14e>
  54:	6574                	.2byte	0x6574
  56:	5f72                	.2byte	0x5f72
  58:	616c                	.2byte	0x616c
  5a:	665f 7269 2e00      	.byte	0x5f, 0x66, 0x69, 0x72, 0x00, 0x2e
  60:	2f2e                	.2byte	0x2f2e
  62:	2e2e                	.2byte	0x2e2e
  64:	7269662f          	.4byte	0x7269662f
  68:	776d                	.2byte	0x776d
  6a:	7261                	.2byte	0x7261
  6c:	0065                	.2byte	0x65
  6e:	30747263          	bgeu	s0,t2,372 <_ebss+0x23a>
  72:	765f 7865 532e      	.byte	0x5f, 0x76, 0x65, 0x78, 0x2e, 0x53
  78:	2e00                	.2byte	0x2e00
  7a:	2f2e                	.2byte	0x2f2e
  7c:	2e2e                	.2byte	0x2e2e
  7e:	7269662f          	.4byte	0x7269662f
  82:	776d                	.2byte	0x776d
  84:	7261                	.2byte	0x7261
  86:	2f65                	.2byte	0x2f65
  88:	7369                	.2byte	0x7369
  8a:	2e72                	.2byte	0x2e72
  8c:	6f2f0063          	beq	t5,s2,76c <_fstack+0x16c>
  90:	7470                	.2byte	0x7470
  92:	7369722f          	.4byte	0x7369722f
  96:	6c2f7663          	bgeu	t5,sp,762 <_fstack+0x162>
  9a:	6269                	.2byte	0x6269
  9c:	6363672f          	.4byte	0x6363672f
  a0:	7369722f          	.4byte	0x7369722f
  a4:	32337663          	bgeu	t1,gp,3d0 <_ebss+0x298>
  a8:	752d                	.2byte	0x752d
  aa:	6b6e                	.2byte	0x6b6e
  ac:	6f6e                	.2byte	0x6f6e
  ae:	652d6e77          	.4byte	0x652d6e77
  b2:	666c                	.2byte	0x666c
  b4:	2e32312f          	.4byte	0x2e32312f
  b8:	2e31                	.2byte	0x2e31
  ba:	2f30                	.2byte	0x2f30
  bc:	6e69                	.2byte	0x6e69
  be:	64756c63          	bltu	a0,t2,716 <_fstack+0x116>
  c2:	0065                	.2byte	0x65
  c4:	74737973          	csrrci	s2,0x747,6
  c8:	6d65                	.2byte	0x6d65
  ca:	682e                	.2byte	0x682e
  cc:	6900                	.2byte	0x6900
  ce:	7172                	.2byte	0x7172
  d0:	765f 7865 682e      	.byte	0x5f, 0x76, 0x65, 0x78, 0x2e, 0x68
  d6:	7300                	.2byte	0x7300
  d8:	6474                	.2byte	0x6474
  da:	6e69                	.2byte	0x6e69
  dc:	2d74                	.2byte	0x2d74
  de:	2e636367          	.4byte	0x2e636367
  e2:	0068                	.2byte	0x68
  e4:	6966                	.2byte	0x6966
  e6:	2e72                	.2byte	0x2e72
  e8:	69660063          	beq	a2,s6,768 <_fstack+0x168>
  ec:	2e72                	.2byte	0x2e72
  ee:	0068                	.2byte	0x68
  f0:	6966                	.2byte	0x6966
  f2:	5f72                	.2byte	0x5f72
  f4:	746e6f63          	bltu	t3,t1,852 <_fstack+0x252>
  f8:	6f72                	.2byte	0x6f72
  fa:	2e6c                	.2byte	0x2e6c
  fc:	74730063          	beq	t1,t2,83c <_fstack+0x23c>
 100:	6275                	.2byte	0x6275
 102:	632e                	.2byte	0x632e
	...


00000000 <.debug_info>:
   0:	0021                	.2byte	0x21
   2:	0000                	.2byte	0x0
   4:	0005                	.2byte	0x5
   6:	0401                	.2byte	0x401
   8:	0000                	.2byte	0x0
   a:	0000                	.2byte	0x0
   c:	0001                	.2byte	0x1
   e:	0000                	.2byte	0x0
  10:	0000                	.2byte	0x0
  12:	0000                	.2byte	0x0
  14:	e010                	.2byte	0xe010
  16:	0002                	.2byte	0x2
  18:	0000                	.2byte	0x0
  1a:	1a00                	.2byte	0x1a00
  1c:	0000                	.2byte	0x0
  1e:	7900                	.2byte	0x7900
  20:	0000                	.2byte	0x0
  22:	0100                	.2byte	0x100
  24:	e980                	.2byte	0xe980
  26:	0000                	.2byte	0x0
  28:	0500                	.2byte	0x500
  2a:	0100                	.2byte	0x100
  2c:	1404                	.2byte	0x1404
  2e:	0000                	.2byte	0x0
  30:	0400                	.2byte	0x400
  32:	000000b7          	lui	ra,0x0
  36:	791d                	.2byte	0x791d
  38:	0000                	.2byte	0x0
  3a:	0000                	.2byte	0x0
  3c:	0000                	.2byte	0x0
  3e:	4800                	.2byte	0x4800
  40:	0001                	.2byte	0x1
  42:	b410                	.2byte	0xb410
  44:	0000                	.2byte	0x0
  46:	0400                	.2byte	0x400
  48:	0002                	.2byte	0x2
  4a:	0100                	.2byte	0x100
  4c:	0601                	.2byte	0x601
  4e:	0098                	.2byte	0x98
  50:	0000                	.2byte	0x0
  52:	0201                	.2byte	0x201
  54:	5505                	.2byte	0x5505
  56:	0001                	.2byte	0x1
  58:	0100                	.2byte	0x100
  5a:	0504                	.2byte	0x504
  5c:	014c                	.2byte	0x14c
  5e:	0000                	.2byte	0x0
  60:	0801                	.2byte	0x801
  62:	4705                	.2byte	0x4705
  64:	0001                	.2byte	0x1
  66:	0100                	.2byte	0x100
  68:	0801                	.2byte	0x801
  6a:	0096                	.2byte	0x96
  6c:	0000                	.2byte	0x0
  6e:	5f02                	.2byte	0x5f02
  70:	0001                	.2byte	0x1
  72:	3100                	.2byte	0x3100
  74:	541c                	.2byte	0x541c
  76:	0000                	.2byte	0x0
  78:	0100                	.2byte	0x100
  7a:	0702                	.2byte	0x702
  7c:	00a4                	.2byte	0xa4
  7e:	0000                	.2byte	0x0
  80:	6802                	.2byte	0x6802
  82:	0001                	.2byte	0x1
  84:	3400                	.2byte	0x3400
  86:	0000661b          	.4byte	0x661b
  8a:	0100                	.2byte	0x100
  8c:	0704                	.2byte	0x704
  8e:	0124                	.2byte	0x124
  90:	0000                	.2byte	0x0
  92:	0801                	.2byte	0x801
  94:	00011f07          	.4byte	0x11f07
  98:	0500                	.2byte	0x500
  9a:	0504                	.2byte	0x504
  9c:	6e69                	.2byte	0x6e69
  9e:	0074                	.2byte	0x74
  a0:	0401                	.2byte	0x401
  a2:	00012907          	.4byte	0x12907
  a6:	0600                	.2byte	0x600
  a8:	011a                	.2byte	0x11a
  aa:	0000                	.2byte	0x0
  ac:	490a0e03          	lb	t3,1168(s4)
  b0:	0000                	.2byte	0x0
  b2:	0500                	.2byte	0x500
  b4:	00003003          	.4byte	0x3003
  b8:	0700                	.2byte	0x700
  ba:	7369                	.2byte	0x7369
  bc:	0072                	.2byte	0x72
  be:	a8061003          	lh	zero,-1408(a2)
  c2:	0001                	.2byte	0x1
  c4:	5410                	.2byte	0x5410
  c6:	0000                	.2byte	0x0
  c8:	0100                	.2byte	0x100
  ca:	089c                	.2byte	0x89c
  cc:	010e                	.2byte	0x10e
  ce:	0000                	.2byte	0x0
  d0:	1d02                	.2byte	0x1d02
  d2:	8014                	.2byte	0x8014
  d4:	0001                	.2byte	0x1
  d6:	2810                	.2byte	0x2810
  d8:	0000                	.2byte	0x0
  da:	0100                	.2byte	0x100
  dc:	cc9c                	.2byte	0xcc9c
  de:	0000                	.2byte	0x0
  e0:	0900                	.2byte	0x900
  e2:	0115                	.2byte	0x115
  e4:	0000                	.2byte	0x0
  e6:	1d02                	.2byte	0x1d02
  e8:	7b2d                	.2byte	0x7b2d
  ea:	0000                	.2byte	0x0
  ec:	0200                	.2byte	0x200
  ee:	6c91                	.2byte	0x6c91
  f0:	0300                	.2byte	0x300
  f2:	0085                	.2byte	0x85
  f4:	0000                	.2byte	0x0
  f6:	641c                	.2byte	0x641c
  f8:	0001                	.2byte	0x1
  fa:	1c10                	.2byte	0x1c10
  fc:	0000                	.2byte	0x0
  fe:	0100                	.2byte	0x100
 100:	039c                	.2byte	0x39c
 102:	0136                	.2byte	0x136
 104:	0000                	.2byte	0x0
 106:	480e                	.2byte	0x480e
 108:	0001                	.2byte	0x1
 10a:	1c10                	.2byte	0x1c10
 10c:	0000                	.2byte	0x0
 10e:	0100                	.2byte	0x100
 110:	009c                	.2byte	0x9c
 112:	0114                	.2byte	0x114
 114:	0000                	.2byte	0x0
 116:	0005                	.2byte	0x5
 118:	0401                	.2byte	0x401
 11a:	00bd                	.2byte	0xbd
 11c:	0000                	.2byte	0x0
 11e:	0000b707          	.4byte	0xb707
 122:	1d00                	.2byte	0x1d00
 124:	00e4                	.2byte	0xe4
 126:	0000                	.2byte	0x0
 128:	0000                	.2byte	0x0
 12a:	0000                	.2byte	0x0
 12c:	000c                	.2byte	0xc
 12e:	0000                	.2byte	0x0
 130:	0000                	.2byte	0x0
 132:	0000                	.2byte	0x0
 134:	02d5                	.2byte	0x2d5
 136:	0000                	.2byte	0x0
 138:	3d02                	.2byte	0x3d02
 13a:	0000                	.2byte	0x0
 13c:	3600                	.2byte	0x3600
 13e:	0000                	.2byte	0x0
 140:	0300                	.2byte	0x300
 142:	0036                	.2byte	0x36
 144:	0000                	.2byte	0x0
 146:	000a                	.2byte	0xa
 148:	0401                	.2byte	0x401
 14a:	00012907          	.4byte	0x12907
 14e:	0800                	.2byte	0x800
 150:	0504                	.2byte	0x504
 152:	6e69                	.2byte	0x6e69
 154:	0074                	.2byte	0x74
 156:	7104                	.2byte	0x7104
 158:	0001                	.2byte	0x1
 15a:	1400                	.2byte	0x1400
 15c:	0026                	.2byte	0x26
 15e:	0000                	.2byte	0x0
 160:	0305                	.2byte	0x305
 162:	0000                	.2byte	0x0
 164:	0000                	.2byte	0x0
 166:	3d02                	.2byte	0x3d02
 168:	0000                	.2byte	0x0
 16a:	6400                	.2byte	0x6400
 16c:	0000                	.2byte	0x0
 16e:	0300                	.2byte	0x300
 170:	0036                	.2byte	0x36
 172:	0000                	.2byte	0x0
 174:	7604003f 17000001 	.8byte	0x170000017604003f
 17c:	0054                	.2byte	0x54
 17e:	0000                	.2byte	0x0
 180:	0305                	.2byte	0x305
 182:	0034                	.2byte	0x34
 184:	0000                	.2byte	0x0
 186:	0101                	.2byte	0x101
 188:	9806                	.2byte	0x9806
 18a:	0000                	.2byte	0x0
 18c:	0100                	.2byte	0x100
 18e:	0502                	.2byte	0x502
 190:	0155                	.2byte	0x155
 192:	0000                	.2byte	0x0
 194:	0401                	.2byte	0x401
 196:	4c05                	.2byte	0x4c05
 198:	0001                	.2byte	0x1
 19a:	0100                	.2byte	0x100
 19c:	0508                	.2byte	0x508
 19e:	00000147          	.4byte	0x147
 1a2:	8305                	.2byte	0x8305
 1a4:	0001                	.2byte	0x1
 1a6:	2e00                	.2byte	0x2e00
 1a8:	00009b17          	auipc	s6,0x9
 1ac:	0100                	.2byte	0x100
 1ae:	0801                	.2byte	0x801
 1b0:	0096                	.2byte	0x96
 1b2:	0000                	.2byte	0x0
 1b4:	0201                	.2byte	0x201
 1b6:	0000a407          	.4byte	0xa407
 1ba:	0500                	.2byte	0x500
 1bc:	0168                	.2byte	0x168
 1be:	0000                	.2byte	0x0
 1c0:	1b34                	.2byte	0x1b34
 1c2:	00b4                	.2byte	0xb4
 1c4:	0000                	.2byte	0x0
 1c6:	0401                	.2byte	0x401
 1c8:	00012407          	.4byte	0x12407
 1cc:	0100                	.2byte	0x100
 1ce:	0708                	.2byte	0x708
 1d0:	011f 0000 9309      	.byte	0x1f, 0x01, 0x00, 0x00, 0x09, 0x93
 1d6:	0001                	.2byte	0x1
 1d8:	0100                	.2byte	0x100
 1da:	3310                	.2byte	0x3310
 1dc:	00e8                	.2byte	0xe8
 1de:	0000                	.2byte	0x0
 1e0:	0080                	.2byte	0x80
 1e2:	3800                	.2byte	0x3800
 1e4:	00b8                	.2byte	0xb8
 1e6:	0000                	.2byte	0x0
 1e8:	9c01                	.2byte	0x9c01
 1ea:	00e8                	.2byte	0xe8
 1ec:	0000                	.2byte	0x0
 1ee:	7406                	.2byte	0x7406
 1f0:	1c00                	.2byte	0x1c00
 1f2:	901a                	.2byte	0x901a
 1f4:	0000                	.2byte	0x0
 1f6:	0100                	.2byte	0x100
 1f8:	0059                	.2byte	0x59
 1fa:	040a                	.2byte	0x40a
 1fc:	003d                	.2byte	0x3d
 1fe:	0000                	.2byte	0x0
 200:	00018b0b          	.4byte	0x18b0b
 204:	0100                	.2byte	0x100
 206:	3304                	.2byte	0x3304
 208:	0000                	.2byte	0x0
 20a:	3800                	.2byte	0x3800
 20c:	0080                	.2byte	0x80
 20e:	0000                	.2byte	0x0
 210:	9c01                	.2byte	0x9c01
 212:	1c0c                	.2byte	0x1c0c
 214:	0000                	.2byte	0x0
 216:	5038                	.2byte	0x5038
 218:	0000                	.2byte	0x0
 21a:	0600                	.2byte	0x600
 21c:	0069                	.2byte	0x69
 21e:	100a                	.2byte	0x100a
 220:	00a9                	.2byte	0xa9
 222:	0000                	.2byte	0x0
 224:	9102                	.2byte	0x9102
 226:	006c                	.2byte	0x6c
 228:	0000                	.2byte	0x0
 22a:	0000013b          	.4byte	0x13b
 22e:	0005                	.2byte	0x5
 230:	0401                	.2byte	0x401
 232:	0174                	.2byte	0x174
 234:	0000                	.2byte	0x0
 236:	b708                	.2byte	0xb708
 238:	0000                	.2byte	0x0
 23a:	1d00                	.2byte	0x1d00
 23c:	00f0                	.2byte	0xf0
 23e:	0000                	.2byte	0x0
 240:	0000                	.2byte	0x0
 242:	0000                	.2byte	0x0
 244:	0000002b          	.4byte	0x2b
 248:	0000                	.2byte	0x0
 24a:	0000                	.2byte	0x0
 24c:	0451                	.2byte	0x451
 24e:	0000                	.2byte	0x0
 250:	0101                	.2byte	0x101
 252:	9806                	.2byte	0x9806
 254:	0000                	.2byte	0x0
 256:	0100                	.2byte	0x100
 258:	0502                	.2byte	0x502
 25a:	0155                	.2byte	0x155
 25c:	0000                	.2byte	0x0
 25e:	0401                	.2byte	0x401
 260:	4c05                	.2byte	0x4c05
 262:	0001                	.2byte	0x1
 264:	0100                	.2byte	0x100
 266:	0508                	.2byte	0x508
 268:	00000147          	.4byte	0x147
 26c:	0101                	.2byte	0x101
 26e:	9608                	.2byte	0x9608
 270:	0000                	.2byte	0x0
 272:	0100                	.2byte	0x100
 274:	0702                	.2byte	0x702
 276:	00a4                	.2byte	0xa4
 278:	0000                	.2byte	0x0
 27a:	6809                	.2byte	0x6809
 27c:	0001                	.2byte	0x1
 27e:	0400                	.2byte	0x400
 280:	1b34                	.2byte	0x1b34
 282:	005c                	.2byte	0x5c
 284:	0000                	.2byte	0x0
 286:	0401                	.2byte	0x401
 288:	00012407          	.4byte	0x12407
 28c:	0100                	.2byte	0x100
 28e:	0708                	.2byte	0x708
 290:	011f 0000 040a      	.byte	0x1f, 0x01, 0x00, 0x00, 0x0a, 0x04
 296:	6905                	.2byte	0x6905
 298:	746e                	.2byte	0x746e
 29a:	0100                	.2byte	0x100
 29c:	0704                	.2byte	0x704
 29e:	0129                	.2byte	0x129
 2a0:	0000                	.2byte	0x0
 2a2:	9302                	.2byte	0x9302
 2a4:	0001                	.2byte	0x1
 2a6:	0500                	.2byte	0x500
 2a8:	0088                	.2byte	0x88
 2aa:	0000                	.2byte	0x0
 2ac:	0088                	.2byte	0x88
 2ae:	0000                	.2byte	0x0
 2b0:	6a040003          	lb	zero,1696(s0)
 2b4:	0000                	.2byte	0x0
 2b6:	0200                	.2byte	0x200
 2b8:	0000018b          	.4byte	0x18b
 2bc:	8804                	.2byte	0x8804
 2be:	0000                	.2byte	0x0
 2c0:	9d00                	.2byte	0x9d00
 2c2:	0000                	.2byte	0x0
 2c4:	0300                	.2byte	0x300
 2c6:	0b00                	.2byte	0xb00
 2c8:	01a6                	.2byte	0x1a6
 2ca:	0000                	.2byte	0x0
 2cc:	38330703          	lb	a4,899(t1)
 2d0:	0001                	.2byte	0x1
 2d2:	b438                	.2byte	0xb438
 2d4:	0001                	.2byte	0x1
 2d6:	0100                	.2byte	0x100
 2d8:	cb9c                	.2byte	0xcb9c
 2da:	0000                	.2byte	0x0
 2dc:	0c00                	.2byte	0xc00
 2de:	02ac                	.2byte	0x2ac
 2e0:	3800                	.2byte	0x3800
 2e2:	0028                	.2byte	0x28
 2e4:	0000                	.2byte	0x0
 2e6:	690d                	.2byte	0x690d
 2e8:	0300                	.2byte	0x300
 2ea:	0b22                	.2byte	0xb22
 2ec:	006a                	.2byte	0x6a
 2ee:	0000                	.2byte	0x0
 2f0:	9102                	.2byte	0x9102
 2f2:	006c                	.2byte	0x6c
 2f4:	0500                	.2byte	0x500
 2f6:	000001ab          	.4byte	0x1ab
 2fa:	9c1a                	.2byte	0x9c1a
 2fc:	0002                	.2byte	0x2
 2fe:	5410                	.2byte	0x5410
 300:	0000                	.2byte	0x0
 302:	0100                	.2byte	0x100
 304:	ec9c                	.2byte	0xec9c
 306:	0000                	.2byte	0x0
 308:	0600                	.2byte	0x600
 30a:	0070                	.2byte	0x70
 30c:	181a                	.2byte	0x181a
 30e:	00ec                	.2byte	0xec
 310:	0000                	.2byte	0x0
 312:	9102                	.2byte	0x9102
 314:	006c                	.2byte	0x6c
 316:	f804                	.2byte	0xf804
 318:	0000                	.2byte	0x0
 31a:	0100                	.2byte	0x100
 31c:	0801                	.2byte	0x801
 31e:	009f 0000 f10e      	.byte	0x9f, 0x00, 0x00, 0x00, 0x0e, 0xf1
 324:	0000                	.2byte	0x0
 326:	0500                	.2byte	0x500
 328:	019e                	.2byte	0x19e
 32a:	0000                	.2byte	0x0
 32c:	3412                	.2byte	0x3412
 32e:	0002                	.2byte	0x2
 330:	6810                	.2byte	0x6810
 332:	0000                	.2byte	0x0
 334:	0100                	.2byte	0x100
 336:	1e9c                	.2byte	0x1e9c
 338:	0001                	.2byte	0x1
 33a:	0600                	.2byte	0x600
 33c:	13120063          	beq	tp,a7,45c <_ebss+0x324>
 340:	00f1                	.2byte	0xf1
 342:	0000                	.2byte	0x0
 344:	9102                	.2byte	0x9102
 346:	8507006f          	j	fff70396 <_esram+0xc7f700aa>
 34a:	0000                	.2byte	0x0
 34c:	1c00                	.2byte	0x1c00
 34e:	0218                	.2byte	0x218
 350:	1000                	.2byte	0x1000
 352:	001c                	.2byte	0x1c
 354:	0000                	.2byte	0x0
 356:	9c01                	.2byte	0x9c01
 358:	00013607          	.4byte	0x13607
 35c:	0e00                	.2byte	0xe00
 35e:	01fc                	.2byte	0x1fc
 360:	1000                	.2byte	0x1000
 362:	001c                	.2byte	0x1c
 364:	0000                	.2byte	0x0
 366:	9c01                	.2byte	0x9c01
	...


00000000 <.debug_abbrev>:
   0:	1101                	.2byte	0x1101
   2:	1000                	.2byte	0x1000
   4:	12011117          	auipc	sp,0x12011
   8:	1b0e030f          	.4byte	0x1b0e030f
   c:	250e                	.2byte	0x250e
   e:	130e                	.2byte	0x130e
  10:	0005                	.2byte	0x5
  12:	0000                	.2byte	0x0
  14:	2401                	.2byte	0x2401
  16:	0b00                	.2byte	0xb00
  18:	030b3e0b          	.4byte	0x30b3e0b
  1c:	000e                	.2byte	0xe
  1e:	0200                	.2byte	0x200
  20:	0016                	.2byte	0x16
  22:	213a0e03          	lb	t3,531(s4)
  26:	3b04                	.2byte	0x3b04
  28:	490b390b          	.4byte	0x490b390b
  2c:	03000013          	li	zero,48
  30:	002e                	.2byte	0x2e
  32:	213a0e03          	lb	t3,531(s4)
  36:	3b01                	.2byte	0x3b01
  38:	2521390b          	.4byte	0x2521390b
  3c:	01111927          	.4byte	0x1111927
  40:	0612                	.2byte	0x612
  42:	1840                	.2byte	0x1840
  44:	197a                	.2byte	0x197a
  46:	0000                	.2byte	0x0
  48:	1104                	.2byte	0x1104
  4a:	2501                	.2byte	0x2501
  4c:	130e                	.2byte	0x130e
  4e:	1b1f030b          	.4byte	0x1b1f030b
  52:	111f 1201 1006      	.byte	0x1f, 0x11, 0x01, 0x12, 0x06, 0x10
  58:	05000017          	auipc	zero,0x5000
  5c:	0024                	.2byte	0x24
  5e:	0b3e0b0b          	.4byte	0xb3e0b0b
  62:	00000803          	lb	a6,0(zero) # 0 <taps>
  66:	3406                	.2byte	0x3406
  68:	0300                	.2byte	0x300
  6a:	3a0e                	.2byte	0x3a0e
  6c:	390b3b0b          	.4byte	0x390b3b0b
  70:	3f13490b          	.4byte	0x3f13490b
  74:	0219                	.2byte	0x219
  76:	0018                	.2byte	0x18
  78:	0700                	.2byte	0x700
  7a:	002e                	.2byte	0x2e
  7c:	0803193f 0b3b0b3a 	.8byte	0xb3b0b3a0803193f
  84:	0b39                	.2byte	0xb39
  86:	01111927          	.4byte	0x1111927
  8a:	0612                	.2byte	0x612
  8c:	1840                	.2byte	0x1840
  8e:	197c                	.2byte	0x197c
  90:	0000                	.2byte	0x0
  92:	2e08                	.2byte	0x2e08
  94:	0301                	.2byte	0x301
  96:	3a0e                	.2byte	0x3a0e
  98:	390b3b0b          	.4byte	0x390b3b0b
  9c:	1119270b          	.4byte	0x1119270b
  a0:	1201                	.2byte	0x1201
  a2:	4006                	.2byte	0x4006
  a4:	7a18                	.2byte	0x7a18
  a6:	0119                	.2byte	0x119
  a8:	09000013          	li	zero,144
  ac:	0005                	.2byte	0x5
  ae:	0b3a0e03          	lb	t3,179(s4)
  b2:	0b390b3b          	.4byte	0xb390b3b
  b6:	1349                	.2byte	0x1349
  b8:	1802                	.2byte	0x1802
  ba:	0000                	.2byte	0x0
  bc:	0100                	.2byte	0x100
  be:	0024                	.2byte	0x24
  c0:	0b3e0b0b          	.4byte	0xb3e0b0b
  c4:	00000e03          	lb	t3,0(zero) # 0 <taps>
  c8:	0102                	.2byte	0x102
  ca:	4901                	.2byte	0x4901
  cc:	00130113          	addi	sp,t1,1
  d0:	0300                	.2byte	0x300
  d2:	0021                	.2byte	0x21
  d4:	1349                	.2byte	0x1349
  d6:	00000b2f          	.4byte	0xb2f
  da:	3404                	.2byte	0x3404
  dc:	0300                	.2byte	0x300
  de:	3a0e                	.2byte	0x3a0e
  e0:	0221                	.2byte	0x221
  e2:	21390b3b          	.4byte	0x21390b3b
  e6:	4905                	.2byte	0x4905
  e8:	02193f13          	sltiu	t5,s2,33
  ec:	0018                	.2byte	0x18
  ee:	0500                	.2byte	0x500
  f0:	0016                	.2byte	0x16
  f2:	213a0e03          	lb	t3,531(s4)
  f6:	390b3b03          	.4byte	0x390b3b03
  fa:	0013490b          	.4byte	0x13490b
  fe:	0600                	.2byte	0x600
 100:	0034                	.2byte	0x34
 102:	213a0803          	lb	a6,531(s4)
 106:	3b01                	.2byte	0x3b01
 108:	490b390b          	.4byte	0x490b390b
 10c:	00180213          	addi	tp,a6,1
 110:	0700                	.2byte	0x700
 112:	0111                	.2byte	0x111
 114:	0e25                	.2byte	0xe25
 116:	1f030b13          	addi	s6,t1,496
 11a:	17551f1b          	.4byte	0x17551f1b
 11e:	0111                	.2byte	0x111
 120:	1710                	.2byte	0x1710
 122:	0000                	.2byte	0x0
 124:	2408                	.2byte	0x2408
 126:	0b00                	.2byte	0xb00
 128:	030b3e0b          	.4byte	0x30b3e0b
 12c:	0008                	.2byte	0x8
 12e:	0900                	.2byte	0x900
 130:	012e                	.2byte	0x12e
 132:	0e03193f 0b3b0b3a 	.8byte	0xb3b0b3a0e03193f
 13a:	0b39                	.2byte	0xb39
 13c:	1349                	.2byte	0x1349
 13e:	0111                	.2byte	0x111
 140:	0612                	.2byte	0x612
 142:	1840                	.2byte	0x1840
 144:	197a                	.2byte	0x197a
 146:	1301                	.2byte	0x1301
 148:	0000                	.2byte	0x0
 14a:	0f0a                	.2byte	0xf0a
 14c:	0b00                	.2byte	0xb00
 14e:	0013490b          	.4byte	0x13490b
 152:	0b00                	.2byte	0xb00
 154:	012e                	.2byte	0x12e
 156:	0e03193f 0b3b0b3a 	.8byte	0xb3b0b3a0e03193f
 15e:	0b39                	.2byte	0xb39
 160:	0111                	.2byte	0x111
 162:	0612                	.2byte	0x612
 164:	1840                	.2byte	0x1840
 166:	197a                	.2byte	0x197a
 168:	0000                	.2byte	0x0
 16a:	0b0c                	.2byte	0xb0c
 16c:	1101                	.2byte	0x1101
 16e:	1201                	.2byte	0x1201
 170:	0006                	.2byte	0x6
 172:	0000                	.2byte	0x0
 174:	2401                	.2byte	0x2401
 176:	0b00                	.2byte	0xb00
 178:	030b3e0b          	.4byte	0x30b3e0b
 17c:	000e                	.2byte	0xe
 17e:	0200                	.2byte	0x200
 180:	012e                	.2byte	0x12e
 182:	0e03193f 3b03213a 	.8byte	0x3b03213a0e03193f
 18a:	0d21390b          	.4byte	0xd21390b
 18e:	1349                	.2byte	0x1349
 190:	193c                	.2byte	0x193c
 192:	1301                	.2byte	0x1301
 194:	0000                	.2byte	0x0
 196:	00001803          	lh	a6,0(zero) # 0 <taps>
 19a:	0400                	.2byte	0x400
 19c:	210b000f          	.4byte	0x210b000f
 1a0:	4904                	.2byte	0x4904
 1a2:	05000013          	li	zero,80
 1a6:	012e                	.2byte	0x12e
 1a8:	0e03193f 3b02213a 	.8byte	0x3b02213a0e03193f
 1b0:	0621390b          	.4byte	0x621390b
 1b4:	01111927          	.4byte	0x1111927
 1b8:	0612                	.2byte	0x612
 1ba:	1840                	.2byte	0x1840
 1bc:	197c                	.2byte	0x197c
 1be:	1301                	.2byte	0x1301
 1c0:	0000                	.2byte	0x0
 1c2:	0506                	.2byte	0x506
 1c4:	0300                	.2byte	0x300
 1c6:	3a08                	.2byte	0x3a08
 1c8:	0221                	.2byte	0x221
 1ca:	0b390b3b          	.4byte	0xb390b3b
 1ce:	1349                	.2byte	0x1349
 1d0:	1802                	.2byte	0x1802
 1d2:	0000                	.2byte	0x0
 1d4:	03002e07          	.4byte	0x3002e07
 1d8:	3a0e                	.2byte	0x3a0e
 1da:	0121                	.2byte	0x121
 1dc:	21390b3b          	.4byte	0x21390b3b
 1e0:	2725                	.2byte	0x2725
 1e2:	1119                	.2byte	0x1119
 1e4:	1201                	.2byte	0x1201
 1e6:	4006                	.2byte	0x4006
 1e8:	7a18                	.2byte	0x7a18
 1ea:	0019                	.2byte	0x19
 1ec:	0800                	.2byte	0x800
 1ee:	0111                	.2byte	0x111
 1f0:	0e25                	.2byte	0xe25
 1f2:	1f030b13          	addi	s6,t1,496
 1f6:	17551f1b          	.4byte	0x17551f1b
 1fa:	0111                	.2byte	0x111
 1fc:	1710                	.2byte	0x1710
 1fe:	0000                	.2byte	0x0
 200:	1609                	.2byte	0x1609
 202:	0300                	.2byte	0x300
 204:	3a0e                	.2byte	0x3a0e
 206:	390b3b0b          	.4byte	0x390b3b0b
 20a:	0013490b          	.4byte	0x13490b
 20e:	0a00                	.2byte	0xa00
 210:	0024                	.2byte	0x24
 212:	0b3e0b0b          	.4byte	0xb3e0b0b
 216:	00000803          	lb	a6,0(zero) # 0 <taps>
 21a:	3f012e0b          	.4byte	0x3f012e0b
 21e:	0319                	.2byte	0x319
 220:	3a0e                	.2byte	0x3a0e
 222:	390b3b0b          	.4byte	0x390b3b0b
 226:	1201110b          	.4byte	0x1201110b
 22a:	4006                	.2byte	0x4006
 22c:	7c18                	.2byte	0x7c18
 22e:	0119                	.2byte	0x119
 230:	0c000013          	li	zero,192
 234:	0111010b          	.4byte	0x111010b
 238:	0612                	.2byte	0x612
 23a:	0000                	.2byte	0x0
 23c:	340d                	.2byte	0x340d
 23e:	0300                	.2byte	0x300
 240:	3a08                	.2byte	0x3a08
 242:	390b3b0b          	.4byte	0x390b3b0b
 246:	0213490b          	.4byte	0x213490b
 24a:	0018                	.2byte	0x18
 24c:	0e00                	.2byte	0xe00
 24e:	0026                	.2byte	0x26
 250:	1349                	.2byte	0x1349
 252:	0000                	.2byte	0x0
	...


00000000 <.debug_aranges>:
   0:	001c                	.2byte	0x1c
   2:	0000                	.2byte	0x0
   4:	0002                	.2byte	0x2
   6:	0000                	.2byte	0x0
   8:	0000                	.2byte	0x0
   a:	0004                	.2byte	0x4
   c:	0000                	.2byte	0x0
   e:	0000                	.2byte	0x0
  10:	0000                	.2byte	0x0
  12:	1000                	.2byte	0x1000
  14:	0148                	.2byte	0x148
	...
  1e:	0000                	.2byte	0x0
  20:	001c                	.2byte	0x1c
  22:	0000                	.2byte	0x0
  24:	0002                	.2byte	0x2
  26:	0025                	.2byte	0x25
  28:	0000                	.2byte	0x0
  2a:	0004                	.2byte	0x4
  2c:	0000                	.2byte	0x0
  2e:	0000                	.2byte	0x0
  30:	0148                	.2byte	0x148
  32:	1000                	.2byte	0x1000
  34:	00b4                	.2byte	0xb4
	...
  3e:	0000                	.2byte	0x0
  40:	0024                	.2byte	0x24
  42:	0000                	.2byte	0x0
  44:	0002                	.2byte	0x2
  46:	0112                	.2byte	0x112
  48:	0000                	.2byte	0x0
  4a:	0004                	.2byte	0x4
  4c:	0000                	.2byte	0x0
  4e:	0000                	.2byte	0x0
  50:	0000                	.2byte	0x0
  52:	3800                	.2byte	0x3800
  54:	0080                	.2byte	0x80
  56:	0000                	.2byte	0x0
  58:	0080                	.2byte	0x80
  5a:	3800                	.2byte	0x3800
  5c:	00b8                	.2byte	0xb8
	...
  66:	0000                	.2byte	0x0
  68:	0024                	.2byte	0x24
  6a:	0000                	.2byte	0x0
  6c:	0002                	.2byte	0x2
  6e:	022a                	.2byte	0x22a
  70:	0000                	.2byte	0x0
  72:	0004                	.2byte	0x4
  74:	0000                	.2byte	0x0
  76:	0000                	.2byte	0x0
  78:	01fc                	.2byte	0x1fc
  7a:	1000                	.2byte	0x1000
  7c:	00f4                	.2byte	0xf4
  7e:	0000                	.2byte	0x0
  80:	0138                	.2byte	0x138
  82:	3800                	.2byte	0x3800
  84:	01b4                	.2byte	0x1b4
	...


00000000 <.debug_str>:
   0:	2e2e                	.2byte	0x2e2e
   2:	2f2e2e2f          	.4byte	0x2f2e2e2f
   6:	6966                	.2byte	0x6966
   8:	6d72                	.2byte	0x6d72
   a:	65726177          	.4byte	0x65726177
   e:	7472632f          	.4byte	0x7472632f
  12:	5f30                	.2byte	0x5f30
  14:	6576                	.2byte	0x6576
  16:	2e78                	.2byte	0x2e78
  18:	682f0053          	.4byte	0x682f0053
  1c:	2f656d6f          	jal	s10,56312 <_fstack+0x55d12>
  20:	6275                	.2byte	0x6275
  22:	6e75                	.2byte	0x6e75
  24:	7574                	.2byte	0x7574
  26:	7365442f          	.4byte	0x7365442f
  2a:	706f746b          	.4byte	0x706f746b
  2e:	3230322f          	.4byte	0x3230322f
  32:	5f34                	.2byte	0x5f34
  34:	6146                	.2byte	0x6146
  36:	6c6c                	.2byte	0x6c6c
  38:	4e5f 5554 415f      	.byte	0x5f, 0x4e, 0x54, 0x55, 0x5f, 0x41
  3e:	4841                	.2byte	0x4841
  40:	534c                	.2byte	0x534c
  42:	756f632f          	.4byte	0x756f632f
  46:	7372                	.2byte	0x7372
  48:	2d65                	.2byte	0x2d65
  4a:	616c                	.2byte	0x616c
  4c:	5f62                	.2byte	0x5f62
  4e:	2f34                	.2byte	0x2f34
  50:	616c                	.2byte	0x616c
  52:	2d62                	.2byte	0x2d62
  54:	61726163          	bltu	tp,s7,656 <_fstack+0x56>
  58:	6576                	.2byte	0x6576
  5a:	5f6c                	.2byte	0x5f6c
  5c:	6966                	.2byte	0x6966
  5e:	2f72                	.2byte	0x2f72
  60:	6574                	.2byte	0x6574
  62:	65627473          	csrrci	s0,0x656,4
  66:	636e                	.2byte	0x636e
  68:	2f68                	.2byte	0x2f68
  6a:	6e756f63          	bltu	a0,t2,768 <_fstack+0x168>
  6e:	6574                	.2byte	0x6574
  70:	5f72                	.2byte	0x5f72
  72:	616c                	.2byte	0x616c
  74:	665f 7269 4700      	.byte	0x5f, 0x66, 0x69, 0x72, 0x00, 0x47
  7a:	554e                	.2byte	0x554e
  7c:	4120                	.2byte	0x4120
  7e:	2e322053          	.4byte	0x2e322053
  82:	66003933          	.4byte	0x66003933
  86:	756c                	.2byte	0x756c
  88:	635f6873          	csrrsi	a6,0x635,30
  8c:	7570                	.2byte	0x7570
  8e:	645f 6163 6863      	.byte	0x5f, 0x64, 0x63, 0x61, 0x63, 0x68
  94:	0065                	.2byte	0x65
  96:	6e75                	.2byte	0x6e75
  98:	6e676973          	csrrsi	s2,0x6e6,14
  9c:	6465                	.2byte	0x6465
  9e:	6320                	.2byte	0x6320
  a0:	6168                	.2byte	0x6168
  a2:	0072                	.2byte	0x72
  a4:	726f6873          	csrrsi	a6,mhpmevent6h,30
  a8:	2074                	.2byte	0x2074
  aa:	6e75                	.2byte	0x6e75
  ac:	6e676973          	csrrsi	s2,0x6e6,14
  b0:	6465                	.2byte	0x6465
  b2:	6920                	.2byte	0x6920
  b4:	746e                	.2byte	0x746e
  b6:	4700                	.2byte	0x4700
  b8:	554e                	.2byte	0x554e
  ba:	4320                	.2byte	0x4320
  bc:	3731                	.2byte	0x3731
  be:	3120                	.2byte	0x3120
  c0:	2e32                	.2byte	0x2e32
  c2:	2e31                	.2byte	0x2e31
  c4:	2030                	.2byte	0x2030
  c6:	6d2d                	.2byte	0x6d2d
  c8:	6261                	.2byte	0x6261
  ca:	3d69                	.2byte	0x3d69
  cc:	6c69                	.2byte	0x6c69
  ce:	3370                	.2byte	0x3370
  d0:	2032                	.2byte	0x2032
  d2:	6d2d                	.2byte	0x6d2d
  d4:	7574                	.2byte	0x7574
  d6:	656e                	.2byte	0x656e
  d8:	723d                	.2byte	0x723d
  da:	656b636f          	jal	t1,b6730 <_fstack+0xb6130>
  de:	2074                	.2byte	0x2074
  e0:	6d2d                	.2byte	0x6d2d
  e2:	7369                	.2byte	0x7369
  e4:	2d61                	.2byte	0x2d61
  e6:	63657073          	csrci	0x636,10
  ea:	323d                	.2byte	0x323d
  ec:	322e                	.2byte	0x322e
  ee:	2d20                	.2byte	0x2d20
  f0:	616d                	.2byte	0x616d
  f2:	6372                	.2byte	0x6372
  f4:	3d68                	.2byte	0x3d68
  f6:	7672                	.2byte	0x7672
  f8:	20693233          	.4byte	0x20693233
  fc:	672d                	.2byte	0x672d
  fe:	2d20                	.2byte	0x2d20
 100:	6666                	.2byte	0x6666
 102:	6572                	.2byte	0x6572
 104:	7365                	.2byte	0x7365
 106:	6174                	.2byte	0x6174
 108:	646e                	.2byte	0x646e
 10a:	6e69                	.2byte	0x6e69
 10c:	72690067          	jr	1830(s2)
 110:	5f71                	.2byte	0x5f71
 112:	6d746573          	csrrsi	a0,0x6d7,8
 116:	7361                	.2byte	0x7361
 118:	6c66006b          	.4byte	0x6c66006b
 11c:	6761                	.2byte	0x6761
 11e:	6c00                	.2byte	0x6c00
 120:	20676e6f          	jal	t3,76326 <_fstack+0x75d26>
 124:	6f6c                	.2byte	0x6f6c
 126:	676e                	.2byte	0x676e
 128:	7520                	.2byte	0x7520
 12a:	736e                	.2byte	0x736e
 12c:	6769                	.2byte	0x6769
 12e:	656e                	.2byte	0x656e
 130:	2064                	.2byte	0x2064
 132:	6e69                	.2byte	0x6e69
 134:	0074                	.2byte	0x74
 136:	6c66                	.2byte	0x6c66
 138:	7375                	.2byte	0x7375
 13a:	5f68                	.2byte	0x5f68
 13c:	5f757063          	bgeu	a0,s7,71c <_fstack+0x11c>
 140:	6369                	.2byte	0x6369
 142:	6361                	.2byte	0x6361
 144:	6568                	.2byte	0x6568
 146:	6c00                	.2byte	0x6c00
 148:	20676e6f          	jal	t3,7634e <_fstack+0x75d4e>
 14c:	6f6c                	.2byte	0x6f6c
 14e:	676e                	.2byte	0x676e
 150:	6920                	.2byte	0x6920
 152:	746e                	.2byte	0x746e
 154:	7300                	.2byte	0x7300
 156:	6f68                	.2byte	0x6f68
 158:	7472                	.2byte	0x7472
 15a:	6920                	.2byte	0x6920
 15c:	746e                	.2byte	0x746e
 15e:	7500                	.2byte	0x7500
 160:	6e69                	.2byte	0x6e69
 162:	3174                	.2byte	0x3174
 164:	5f36                	.2byte	0x5f36
 166:	0074                	.2byte	0x74
 168:	6975                	.2byte	0x6975
 16a:	746e                	.2byte	0x746e
 16c:	745f3233          	.4byte	0x745f3233
 170:	7400                	.2byte	0x7400
 172:	7061                	.2byte	0x7061
 174:	756f0073          	.4byte	0x756f0073
 178:	7074                	.2byte	0x7074
 17a:	7475                	.2byte	0x7475
 17c:	6e676973          	csrrsi	s2,0x6e6,14
 180:	6c61                	.2byte	0x6c61
 182:	7500                	.2byte	0x7500
 184:	6e69                	.2byte	0x6e69
 186:	3874                	.2byte	0x3874
 188:	745f 6900 696e      	.byte	0x5f, 0x74, 0x00, 0x69, 0x6e, 0x69
 18e:	6674                	.2byte	0x6674
 190:	7269                	.2byte	0x7269
 192:	6600                	.2byte	0x6600
 194:	7269                	.2byte	0x7269
 196:	655f 6378 7475      	.byte	0x5f, 0x65, 0x78, 0x63, 0x75, 0x74
 19c:	0065                	.2byte	0x65
 19e:	7570                	.2byte	0x7570
 1a0:	6374                	.2byte	0x6374
 1a2:	6168                	.2byte	0x6168
 1a4:	0072                	.2byte	0x72
 1a6:	616d                	.2byte	0x616d
 1a8:	6e69                	.2byte	0x6e69
 1aa:	7000                	.2byte	0x7000
 1ac:	6972                	.2byte	0x6972
 1ae:	746e                	.2byte	0x746e
	...


00000000 <.debug_frame>:
   0:	000c                	.2byte	0xc
   2:	0000                	.2byte	0x0
   4:	ffff                	.2byte	0xffff
   6:	ffff                	.2byte	0xffff
   8:	7c010003          	lb	zero,1984(sp) # 120117c4 <_esram_rom+0x20114a4>
   c:	0d01                	.2byte	0xd01
   e:	0002                	.2byte	0x2
  10:	0020                	.2byte	0x20
  12:	0000                	.2byte	0x0
  14:	0000                	.2byte	0x0
  16:	0000                	.2byte	0x0
  18:	0148                	.2byte	0x148
  1a:	1000                	.2byte	0x1000
  1c:	001c                	.2byte	0x1c
  1e:	0000                	.2byte	0x0
  20:	0e44                	.2byte	0xe44
  22:	4410                	.2byte	0x4410
  24:	0188                	.2byte	0x188
  26:	0c44                	.2byte	0xc44
  28:	0008                	.2byte	0x8
  2a:	c848                	.2byte	0xc848
  2c:	020c                	.2byte	0x20c
  2e:	4410                	.2byte	0x4410
  30:	000e                	.2byte	0xe
  32:	0000                	.2byte	0x0
  34:	0020                	.2byte	0x20
  36:	0000                	.2byte	0x0
  38:	0000                	.2byte	0x0
  3a:	0000                	.2byte	0x0
  3c:	0164                	.2byte	0x164
  3e:	1000                	.2byte	0x1000
  40:	001c                	.2byte	0x1c
  42:	0000                	.2byte	0x0
  44:	0e44                	.2byte	0xe44
  46:	4410                	.2byte	0x4410
  48:	0188                	.2byte	0x188
  4a:	0c44                	.2byte	0xc44
  4c:	0008                	.2byte	0x8
  4e:	c848                	.2byte	0xc848
  50:	020c                	.2byte	0x20c
  52:	4410                	.2byte	0x4410
  54:	000e                	.2byte	0xe
  56:	0000                	.2byte	0x0
  58:	0020                	.2byte	0x20
  5a:	0000                	.2byte	0x0
  5c:	0000                	.2byte	0x0
  5e:	0000                	.2byte	0x0
  60:	0180                	.2byte	0x180
  62:	1000                	.2byte	0x1000
  64:	0028                	.2byte	0x28
  66:	0000                	.2byte	0x0
  68:	0e44                	.2byte	0xe44
  6a:	4420                	.2byte	0x4420
  6c:	0188                	.2byte	0x188
  6e:	0c44                	.2byte	0xc44
  70:	0008                	.2byte	0x8
  72:	c854                	.2byte	0xc854
  74:	020c                	.2byte	0x20c
  76:	4420                	.2byte	0x4420
  78:	000e                	.2byte	0xe
  7a:	0000                	.2byte	0x0
  7c:	0024                	.2byte	0x24
  7e:	0000                	.2byte	0x0
  80:	0000                	.2byte	0x0
  82:	0000                	.2byte	0x0
  84:	01a8                	.2byte	0x1a8
  86:	1000                	.2byte	0x1000
  88:	0054                	.2byte	0x54
  8a:	0000                	.2byte	0x0
  8c:	0e44                	.2byte	0xe44
  8e:	4810                	.2byte	0x4810
  90:	0181                	.2byte	0x181
  92:	0288                	.2byte	0x288
  94:	0c44                	.2byte	0xc44
  96:	0008                	.2byte	0x8
  98:	3802                	.2byte	0x3802
  9a:	44c1                	.2byte	0x44c1
  9c:	0cc8                	.2byte	0xcc8
  9e:	1002                	.2byte	0x1002
  a0:	0e44                	.2byte	0xe44
  a2:	0000                	.2byte	0x0
  a4:	000c                	.2byte	0xc
  a6:	0000                	.2byte	0x0
  a8:	ffff                	.2byte	0xffff
  aa:	ffff                	.2byte	0xffff
  ac:	7c010003          	lb	zero,1984(sp)
  b0:	0d01                	.2byte	0xd01
  b2:	0002                	.2byte	0x2
  b4:	0020                	.2byte	0x20
  b6:	0000                	.2byte	0x0
  b8:	00a4                	.2byte	0xa4
  ba:	0000                	.2byte	0x0
  bc:	0000                	.2byte	0x0
  be:	3800                	.2byte	0x3800
  c0:	0080                	.2byte	0x80
  c2:	0000                	.2byte	0x0
  c4:	0e44                	.2byte	0xe44
  c6:	4420                	.2byte	0x4420
  c8:	0188                	.2byte	0x188
  ca:	0c44                	.2byte	0xc44
  cc:	0008                	.2byte	0x8
  ce:	6c02                	.2byte	0x6c02
  d0:	0cc8                	.2byte	0xcc8
  d2:	2002                	.2byte	0x2002
  d4:	0e44                	.2byte	0xe44
  d6:	0000                	.2byte	0x0
  d8:	0024                	.2byte	0x24
  da:	0000                	.2byte	0x0
  dc:	00a4                	.2byte	0xa4
  de:	0000                	.2byte	0x0
  e0:	0080                	.2byte	0x80
  e2:	3800                	.2byte	0x3800
  e4:	00b8                	.2byte	0xb8
  e6:	0000                	.2byte	0x0
  e8:	0e44                	.2byte	0xe44
  ea:	4810                	.2byte	0x4810
  ec:	0188                	.2byte	0x188
  ee:	0289                	.2byte	0x289
  f0:	0c44                	.2byte	0xc44
  f2:	0008                	.2byte	0x8
  f4:	9c02                	.2byte	0x9c02
  f6:	0cc8                	.2byte	0xcc8
  f8:	1002                	.2byte	0x1002
  fa:	c944                	.2byte	0xc944
  fc:	0e44                	.2byte	0xe44
  fe:	0000                	.2byte	0x0
 100:	000c                	.2byte	0xc
 102:	0000                	.2byte	0x0
 104:	ffff                	.2byte	0xffff
 106:	ffff                	.2byte	0xffff
 108:	7c010003          	lb	zero,1984(sp)
 10c:	0d01                	.2byte	0xd01
 10e:	0002                	.2byte	0x2
 110:	0020                	.2byte	0x20
 112:	0000                	.2byte	0x0
 114:	0100                	.2byte	0x100
 116:	0000                	.2byte	0x0
 118:	01fc                	.2byte	0x1fc
 11a:	1000                	.2byte	0x1000
 11c:	001c                	.2byte	0x1c
 11e:	0000                	.2byte	0x0
 120:	0e44                	.2byte	0xe44
 122:	4410                	.2byte	0x4410
 124:	0188                	.2byte	0x188
 126:	0c44                	.2byte	0xc44
 128:	0008                	.2byte	0x8
 12a:	c848                	.2byte	0xc848
 12c:	020c                	.2byte	0x20c
 12e:	4410                	.2byte	0x4410
 130:	000e                	.2byte	0xe
 132:	0000                	.2byte	0x0
 134:	0020                	.2byte	0x20
 136:	0000                	.2byte	0x0
 138:	0100                	.2byte	0x100
 13a:	0000                	.2byte	0x0
 13c:	0218                	.2byte	0x218
 13e:	1000                	.2byte	0x1000
 140:	001c                	.2byte	0x1c
 142:	0000                	.2byte	0x0
 144:	0e44                	.2byte	0xe44
 146:	4410                	.2byte	0x4410
 148:	0188                	.2byte	0x188
 14a:	0c44                	.2byte	0xc44
 14c:	0008                	.2byte	0x8
 14e:	c848                	.2byte	0xc848
 150:	020c                	.2byte	0x20c
 152:	4410                	.2byte	0x4410
 154:	000e                	.2byte	0xe
 156:	0000                	.2byte	0x0
 158:	0024                	.2byte	0x24
 15a:	0000                	.2byte	0x0
 15c:	0100                	.2byte	0x100
 15e:	0000                	.2byte	0x0
 160:	0234                	.2byte	0x234
 162:	1000                	.2byte	0x1000
 164:	0068                	.2byte	0x68
 166:	0000                	.2byte	0x0
 168:	0e44                	.2byte	0xe44
 16a:	4820                	.2byte	0x4820
 16c:	0181                	.2byte	0x181
 16e:	0288                	.2byte	0x288
 170:	0c44                	.2byte	0xc44
 172:	0008                	.2byte	0x8
 174:	4c02                	.2byte	0x4c02
 176:	44c1                	.2byte	0x44c1
 178:	0cc8                	.2byte	0xcc8
 17a:	2002                	.2byte	0x2002
 17c:	0e44                	.2byte	0xe44
 17e:	0000                	.2byte	0x0
 180:	0024                	.2byte	0x24
 182:	0000                	.2byte	0x0
 184:	0100                	.2byte	0x100
 186:	0000                	.2byte	0x0
 188:	029c                	.2byte	0x29c
 18a:	1000                	.2byte	0x1000
 18c:	0054                	.2byte	0x54
 18e:	0000                	.2byte	0x0
 190:	0e44                	.2byte	0xe44
 192:	4820                	.2byte	0x4820
 194:	0181                	.2byte	0x181
 196:	0288                	.2byte	0x288
 198:	0c44                	.2byte	0xc44
 19a:	0008                	.2byte	0x8
 19c:	c178                	.2byte	0xc178
 19e:	c844                	.2byte	0xc844
 1a0:	020c                	.2byte	0x20c
 1a2:	4420                	.2byte	0x4420
 1a4:	000e                	.2byte	0xe
 1a6:	0000                	.2byte	0x0
 1a8:	0024                	.2byte	0x24
 1aa:	0000                	.2byte	0x0
 1ac:	0100                	.2byte	0x100
 1ae:	0000                	.2byte	0x0
 1b0:	0138                	.2byte	0x138
 1b2:	3800                	.2byte	0x3800
 1b4:	01b4                	.2byte	0x1b4
 1b6:	0000                	.2byte	0x0
 1b8:	0e44                	.2byte	0xe44
 1ba:	4820                	.2byte	0x4820
 1bc:	0181                	.2byte	0x181
 1be:	0288                	.2byte	0x288
 1c0:	0c44                	.2byte	0xc44
 1c2:	0008                	.2byte	0x8
 1c4:	c1019803          	lh	a6,-1008(gp)
 1c8:	c844                	.2byte	0xc844
 1ca:	020c                	.2byte	0x20c
 1cc:	4420                	.2byte	0x4420
 1ce:	000e                	.2byte	0xe


00000000 <.debug_rnglists>:
   0:	0000001b          	.4byte	0x1b
   4:	0005                	.2byte	0x5
   6:	0004                	.2byte	0x4
   8:	0000                	.2byte	0x0
   a:	0000                	.2byte	0x0
   c:	0006                	.2byte	0x6
   e:	0000                	.2byte	0x0
  10:	8038                	.2byte	0x8038
  12:	0000                	.2byte	0x0
  14:	0638                	.2byte	0x638
  16:	0080                	.2byte	0x80
  18:	3800                	.2byte	0x3800
  1a:	0138                	.2byte	0x138
  1c:	3800                	.2byte	0x3800
  1e:	1b00                	.2byte	0x1b00
  20:	0000                	.2byte	0x0
  22:	0500                	.2byte	0x500
  24:	0400                	.2byte	0x400
  26:	0000                	.2byte	0x0
  28:	0000                	.2byte	0x0
  2a:	0600                	.2byte	0x600
  2c:	01fc                	.2byte	0x1fc
  2e:	1000                	.2byte	0x1000
  30:	02f0                	.2byte	0x2f0
  32:	1000                	.2byte	0x1000
  34:	3806                	.2byte	0x3806
  36:	0001                	.2byte	0x1
  38:	ec38                	.2byte	0xec38
  3a:	0002                	.2byte	0x2
  3c:	0038                	.2byte	0x38
